(dp0
S'Anchorage,AK'
p1
I293227
sS'Lake Charles,LA'
p2
I72163
sS'Minneapolis,MN'
p3
I383280
sS'Pompano Beach,FL'
p4
I100154
sS'Chattanooga,TN'
p5
I168075
sS'Mesa,AZ'
p6
I440248
sS'Melbourne,FL'
p7
I76083
sS'Waco,TX'
p8
I125410
sS'Nashua,NH'
p9
I86570
sS'Sandy Springs,GA'
p10
I94441
sS'Jersey City,NJ'
p11
I248005
sS'Lynchburg,VA'
p12
I75686
sS'Tustin,CA'
p13
I75769
sS'Detroit,MI'
p14
I711910
sS'Lawrence,MA'
p15
I76526
sS'Allen,PA'
p16
I118240
sS'Goodyear,AZ'
p17
I65445
sS'Vacaville,CA'
p18
I92623
sS'New Haven,CT'
p19
I129849
sS'Lehigh Acres,FL'
p20
I88196
sS'Philadelphia,PA'
p21
I1528306
sS'Huntsville,AL'
p22
I181126
sS'Enterprise,NV'
p23
I118697
sS'Norwalk,CA'
p24
I105686
sS'Dale City,VA'
p25
I62021
sS'Santa Clarita,CA'
p26
I176535
sS'Providence,RI'
p27
I178162
sS'Warner Robins,GA'
p28
I66757
sS'Jacksonville,FL'
p29
I823316
sS'Greensboro,NC'
p30
I270357
sS'Norwalk,CT'
p31
I85793
sS'Chula Vista,CA'
p32
I244789
sS'Farmington Hills,MI'
p33
I79768
sS'Bay,TX'
p34
I72418
sS'Evansville,IN'
p35
I115833
sS'Lubbock,TX'
p36
I230734
sS'Plymouth,MN'
p37
I70710
sS'Salinas,CA'
p38
I151031
sS'San Bernardino,CA'
p39
I210670
sS'Fontana,CA'
p40
I196778
sS'Vancouver,WA'
p41
I162430
sS'Winston-Salem,NC'
p42
I230044
sS'Brockton,MA'
p43
I93973
sS'Napa,CA'
p44
I77122
sS'Schenectady,NY'
p45
I66202
sS'Oceanside,CA'
p46
I167680
sS'Thornton,CO'
p47
I119324
sS'Reno,NV'
p48
I225818
sS'Colorado Springs,CO'
p49
I419586
sS'Passaic,NJ'
p50
I69870
sS'Weston,FL'
p51
I65528
sS'Waukegan,IL'
p52
I87729
sS'Santa Maria,CA'
p53
I99747
sS'Mayag\xc3\xbcez,PR'
p54
I71129
sS'Corona,CA'
p55
I153335
sS'Boise City,ID'
p56
I206286
sS'Avondale,AZ'
p57
I76446
sS'Mission Viejo,CA'
p58
I93585
sS'Oshkosh,WI'
p59
I66110
sS'St. Cloud,MN'
p60
I65885
sS'Irving,TX'
p61
I217139
sS'Milwaukee,WI'
p62
I595587
sS'Palm Bay,FL'
p63
I103225
sS'Carlsbad,CA'
p64
I105707
sS'Missoula,MT'
p65
I66905
sS'Livonia,MI'
p66
I96684
sS'Troy,MI'
p67
I81037
sS'Trenton,NJ'
p68
I85015
sS'Santa Monica,CA'
p69
I89861
sS'Ponce,PR'
p70
I134788
sS'Tucson,AZ'
p71
I521132
sS'Plano,TX'
p72
I261697
sS'New Rochelle,NY'
p73
I77177
sS'Springfield,IL'
p74
I116188
sS'Miramar,FL'
p75
I122438
sS'Silver Spring,MD'
p76
I76534
sS'Midland,TX'
p77
I111238
sS'Dallas,TX'
p78
I1202797
sS'Clifton,NJ'
p79
I84249
sS'Boulder,CO'
p80
I97585
sS'Fort Collins,CO'
p81
I144453
sS'Greenville,NC'
p82
I84879
sS'Grand Prairie,TX'
p83
I176090
sS'Bayam\xc3\xb3n,PR'
p84
I187219
sS'Orem,UT'
p85
I88929
sS'Columbus,OH'
p86
I789939
sS'Duluth,MN'
p87
I86230
sS'Santa Barbara,CA'
p88
I88579
sS'Rockford,IL'
p89
I152220
sS'Gresham,OR'
p90
I105973
sS'Des Moines,IA'
p91
I204196
sS'Charleston,SC'
p92
I119834
sS'Edinburg,TX'
p93
I77613
sS'Springdale,AR'
p94
I70751
sS'Parma,OH'
p95
I81481
sS'Livermore,CA'
p96
I81178
sS'Ontario,CA'
p97
I164517
sS'Oklahoma City,OK'
p98
I582278
sS'Spring Valley,NV'
p99
I179830
sS'Oakland,CA'
p100
I391672
sS'Hollywood,FL'
p101
I141202
sS'Salem,OR'
p102
I155004
sS'Houston,TX'
p103
I2107208
sS'Hesperia,CA'
p104
I90486
sS'Stamford,CT'
p105
I122902
sS'Hampton,VA'
p106
I137381
sS'Bellevue,WA'
p107
I122808
sS'Milpitas,CA'
p108
I67011
sS'Ann Arbor,MI'
p109
I114101
sS'San Jose,CA'
p110
I949197
sS'Glendale,CA'
p111
I191954
sS'Torrance,CA'
p112
I145618
sS'Hammond,IN'
p113
I80812
sS'Spokane Valley,WA'
p114
I89927
sS'Little Rock,AR'
p115
I193973
sS'Lafayette,IN'
p116
I65261
sS'Whittier,CA'
p117
I85433
sS'Waterloo,IA'
p118
I68472
sS'Manteca,CA'
p119
I67338
sS'Baton Rouge,LA'
p120
I229859
sS'Montgomery,AL'
p121
I206655
sS'Wichita Falls,TX'
p122
I104699
sS'Beaverton,OR'
p123
I90150
sS'Waterbury,CT'
p124
I110430
sS'Provo,UT'
p125
I113196
sS'San Tan Valley,AZ'
p126
I74977
sS'Coral Springs,FL'
p127
I121492
sS'Palatine,IL'
p128
I68596
sS'Omaha,NE'
p129
I410269
sS'Youngs,OH'
p130
I66835
sS'Southfield,MI'
p131
I71785
sS'Frederick,MD'
p132
I65439
sS'Anaheim,CA'
p133
I337259
sS'Redwood City,CA'
p134
I77013
sS'Lynn,MA'
p135
I90511
sS'Decatur,IL'
p136
I76268
sS'West Jordan,UT'
p137
I104145
sS'Chesapeake,VA'
p138
I222986
sS'Alhambra,CA'
p139
I83202
sS'Champaign,IL'
p140
I81164
sS'High Point,NC'
p141
I103672
sS'Gary,IN'
p142
I80840
sS'Springfield,MA'
p143
I153115
sS'Berkeley,CA'
p144
I112824
sS'Springfield,MO'
p145
I159643
sS'Yakima,WA'
p146
I91525
sS'Lawrence,KS'
p147
I92718
sS'Guaynabo,PR'
p148
I72315
sS'North Las Vegas,NV'
p149
I217304
sS'Appleton,WI'
p150
I71747
sS'Victorville,CA'
p151
I116305
sS'Long Beach,CA'
p152
I462793
sS'Fargo,ND'
p153
I106600
sS'Union City,NJ'
p154
I66560
sS'Round Rock,TX'
p155
I102441
sS'Cicero,IL'
p156
I84002
sS'Westland,MI'
p157
I83860
sS'Gilbert,AZ'
p158
I209007
sS'Flagstaff,AZ'
p159
I65976
sS'Kennewick,WA'
p160
I74455
sS'Richmond,CA'
p161
I104059
sS'Lynwood,CA'
p162
I69863
sS'Fort Smith,AR'
p163
I86338
sS'Pasadena,CA'
p164
I137294
sS'Arlington,VA'
p165
I209457
sS'Orlando,FL'
p166
I239037
sS'Carmel,IN'
p167
I79447
sS'Arvada,CO'
p168
I107604
sS'Layton,UT'
p169
I67612
sS'New Britain,CT'
p170
I73247
sS'German,MD'
p171
I83372
sS'Wilmington,DE'
p172
I70921
sS'College Station,TX'
p173
I94246
sS'Temecula,CA'
p174
I100751
sS'Toledo,OH'
p175
I286979
sS'Tempe,AZ'
p176
I162123
sS'Merced,CA'
p177
I79254
sS'Santa Clara,CA'
p178
I116864
sS'Surprise,AZ'
p179
I117826
sS'Waldorf,MD'
p180
I68961
sS'Las Cruces,NM'
p181
I98239
sS'Tracy,CA'
p182
I83223
sS'Eau Claire,WI'
p183
I65489
sS'Citrus Heights,CA'
p184
I83490
sS'South Gate,CA'
p185
I94503
sS'Richmond,VA'
p186
I204389
sS'Sunrise Manor,NV'
p187
I185286
sS'Lakeland,FL'
p188
I97530
sS'The Woodlands,TX'
p189
I92076
sS'Redlands,CA'
p190
I68994
sS'Lincoln,NE'
p191
I259041
sS'Mobile,AL'
p192
I195249
sS'Suffolk,VA'
p193
I84906
sS'Asheville,NC'
p194
I83570
sS'Hayward,CA'
p195
I144549
sS'Birmingham,AL'
p196
I211670
sS'Sioux City,IA'
p197
I82378
sS'Frisco,TX'
p198
I117839
sS'San Mateo,CA'
p199
I97461
sS'Los Angeles,CA'
p200
I3797144
sS'Wichita,KS'
p201
I383142
sS'Hillsboro,OR'
p202
I91954
sS'Syracuse,NY'
p203
I145216
sS'Muncie,IN'
p204
I68651
sS'Moreno Valley,CA'
p205
I194592
sS'Buena Park,CA'
p206
I80766
sS'Concord,NC'
p207
I79330
sS'Richardson,TX'
p208
I99721
sS'Visalia,CA'
p209
I124866
sS'South Bend,IN'
p210
I107072
sS'Schaumburg,IL'
p211
I73279
sS'Spring Hill,FL'
p212
I97103
sS'Irvine,CA'
p213
I212982
sS'Modesto,CA'
p214
I201520
sS'San Antonio,TX'
p215
I1334359
sS'Laredo,TX'
p216
I237244
sS'Westminster,CO'
p217
I106518
sS'Roseville,CA'
p218
I119335
sS'Perris,CA'
p219
I68816
sS'Santa Fe,NM'
p220
I68157
sS'Tampa,FL'
p221
I336945
sS'Loveland,CO'
p222
I67100
sS'Sunnyvale,CA'
p223
I140549
sS'Elgin,IL'
p224
I108273
sS'Paterson,NJ'
p225
I146377
sS'Austin,TX'
p226
I795518
sS'Centreville,VA'
p227
I77022
sS'Elk Grove,CA'
p228
I153401
sS'Rochester Hills,MI'
p229
I71022
sS'Amarillo,TX'
p230
I194161
sS'Broken Arrow,OK'
p231
I98523
sS'Mesquite,TX'
p232
I140293
sS'Davenport,IA'
p233
I100068
sS'Nampa,ID'
p234
I81781
sS'McKinney,TX'
p235
I132147
sS'McAllen,TX'
p236
I130767
sS'Metairie,LA'
p237
I132938
sS'Newport News,VA'
p238
I180712
sS'Rancho Cucamonga,CA'
p239
I165858
sS'West Palm Beach,FL'
p240
I100175
sS'Chino Hills,CA'
p241
I75070
sS'Washington,DC'
p242
I604453
sS'San Ramon,CA'
p243
I72404
sS'Bryan,TX'
p244
I76541
sS'Fort Lauderdale,FL'
p245
I166039
sS'Escondido,CA'
p246
I144402
sS'Charlotte,NC'
p247
I734418
sS'Rialto,CA'
p248
I99530
sS'Peoria,IL'
p249
I114966
sS'San Marcos,CA'
p250
I84079
sS'Chino,CA'
p251
I78237
sS'Bethlehem,PA'
p252
I75233
sS'East Orange,NJ'
p253
I64299
sS'Vista,CA'
p254
I94170
sS'Camarillo,CA'
p255
I65406
sS"Town 'n' Country,FL"
p256
I81175
sS'Concord,CA'
p257
I122508
sS'El Cajon,CA'
p258
I99841
sS'Fort Worth,TX'
p259
I744114
sS'Stockton,CA'
p260
I292747
sS'Daly City,CA'
p261
I101361
sS'Ellicott City,MD'
p262
I67241
sS'Durham,NC'
p263
I229029
sS'Arden-Arcade,CA'
p264
I87272
sS'Port St. Lucie,FL'
p265
I165153
sS"Lee's Summit,MO"
p266
I91229
sS'Portland,ME'
p267
I66150
sS'Erie,PA'
p268
I101821
sS'Harlingen,TX'
p269
I65124
sS'Pasadena,TX'
p270
I149722
sS'Canton,OH'
p271
I72958
sS'Chico,CA'
p272
I86213
sS'Virginia Beach,VA'
p273
I439172
sS'Menifee,CA'
p274
I78018
sS'Warren,MI'
p275
I134075
sS'East Los Angeles,CA'
p276
I127198
sS'Santa Ana,CA'
p277
I325483
sS'Mountain View,CA'
p278
I74320
sS'Lowell,MA'
p279
I106730
sS'Edmond,OK'
p280
I81696
sS'Kendall,FL'
p281
I82561
sS'Roswell,GA'
p282
I88908
sS'Camden,NJ'
p283
I77331
sS'Kansas City,MO'
p284
I460665
sS'Rapid City,SD'
p285
I68221
sS'Waukesha,WI'
p286
I70741
sS'Clovis,CA'
p287
I95915
sS'Aurora,CO'
p288
I326719
sS'Burbank,CA'
p289
I103472
sS'Knoxville,TN'
p290
I179226
sS'Clarksville,TN'
p291
I133669
sS'Albuquerque,NM'
p292
I547585
sS'Tulsa,OK'
p293
I393577
sS'Union City,CA'
p294
I69696
sS'Atascocita,TX'
p295
I71245
sS'Henderson,NV'
p296
I258138
sS'Fort Wayne,IN'
p297
I253696
sS'Elizabeth,NJ'
p298
I125222
sS'Overland Park,KS'
p299
I173909
sS'Killeen,TX'
p300
I129070
sS'Fairfield,CA'
p301
I105580
sS'Baltimore,MD'
p302
I620583
sS'Sacramento,CA'
p303
I467503
sS'Oxnard,CA'
p304
I198484
sS'Indianapolis,IN'
p305
I824199
sS'Macon,GA'
p306
I91524
sS'Auburn,WA'
p307
I70873
sS'Lancaster,CA'
p308
I156786
sS'Longmont,CO'
p309
I86429
sS'Costa Mesa,CA'
p310
I110253
sS'Hawthorne,CA'
p311
I84382
sS'Bloomington,MN'
p312
I83054
sS'Tyler,TX'
p313
I97271
sS'Memphis,TN'
p314
I647870
sS'Boca Raton,FL'
p315
I84604
sS'Brownsville,TX'
p316
I175831
sS'Scottsdale,AZ'
p317
I217977
sS'New York,NY'
p318
I8184899
sS'Akron,OH'
p319
I199030
sS'St. Petersburg,FL'
p320
I244818
sS'Ogden,UT'
p321
I83171
sS'Baldwin Park,CA'
p322
I75496
sS'Spokane,WA'
p323
I209334
sS'Dayton,OH'
p324
I141501
sS'Jackson,MS'
p325
I173315
sS'Palm Coast,FL'
p326
I77473
sS'Corpus Christi,TX'
p327
I305442
sS'Cary,NC'
p328
I135418
sS'Cedar Rapids,IA'
p329
I126498
sS'Warwick,RI'
p330
I82643
sS'San Buenaventura,CA'
p331
I106730
sS'Compton,CA'
p332
I96558
sS'New Orleans,LA'
p333
I347858
sS'Plantation,FL'
p334
I85217
sS'Rock Hill,SC'
p335
I66395
sS'Garden Grove,CA'
p336
I171386
sS'Pittsburgh,PA'
p337
I305759
sS'Bellflower,CA'
p338
I76717
sS'Fayetteville,AR'
p339
I73946
sS'Federal Way,WA'
p340
I89622
sS'Lansing,MI'
p341
I114017
sS'Cincinnati,OH'
p342
I296907
sS'Palmdale,CA'
p343
I152944
sS'San Leandro,CA'
p344
I85159
sS'Roanoke,VA'
p345
I96967
sS'Fresno,CA'
p346
I496147
sS'West Covina,CA'
p347
I106221
sS'Allen,TX'
p348
I84888
sS'Gastonia,NC'
p349
I71782
sS'Columbia,MD'
p350
I102239
sS'San Angelo,TX'
p351
I93804
sS'Tacoma,WA'
p352
I198506
sS'Columbia,MO'
p353
I108872
sS'San Diego,CA'
p354
I1311886
sS'Davis,CA'
p355
I65740
sS'Arlington,TX'
p356
I367185
sS'Lake Forest,CA'
p357
I77482
sS'El Paso,TX'
p358
I652113
sS'Nashville,TN'
p359
I602618
sS'Lewisville,TX'
p360
I95691
sS'Pleasanton,CA'
p361
I70456
sS'Jackson,TN'
p362
I65279
sS'Chandler,AZ'
p363
I236775
sS'Scranton,PA'
p364
I76068
sS'Salt Lake City,UT'
p365
I187215
sS'Missouri City,TX'
p366
I69052
sS'Lauderhill,FL'
p367
I67100
sS'Norman,OK'
p368
I111398
sS'Bend,OR'
p369
I76723
sS'Fort Myers,FL'
p370
I62429
sS'St. Louis,MO'
p371
I319156
sS'Hoover,AL'
p372
I80376
sS'Evanston,IL'
p373
I74549
sS'Cleveland,OH'
p374
I396240
sS'Alafaya,FL'
p375
I84809
sS'Glendale,AZ'
p376
I227358
sS'Mission,TX'
p377
I77586
sS'Lafayette,LA'
p378
I120871
sS'Largo,FL'
p379
I77663
sS'Hartford,CT'
p380
I124847
sS'Cheektowaga,NY'
p381
I75018
sS'Seattle,WA'
p382
I610710
sS'Sterling Heights,MI'
p383
I129734
sS'Carson,CA'
p384
I91828
sS'Tuscaloosa,AL'
p385
I90637
sS'Bloomington,IN'
p386
I81096
sS'Aurora,IL'
p387
I193582
sS'Bloomington,IL'
p388
I76730
sS'Redding,CA'
p389
I89901
sS'Abilene,TX'
p390
I119688
sS'Deltona,FL'
p391
I85183
sS'Jonesboro,AR'
p392
I67486
sS'Peoria,AZ'
p393
I154475
sS'Riverside,CA'
p394
I305707
sS'New Bedford,MA'
p395
I95138
sS'Pawtucket,RI'
p396
I71204
sS'Manchester,NH'
p397
I109655
sS'Brandon,FL'
p398
I102939
sS'Everett,WA'
p399
I103321
sS'Lorain,OH'
p400
I64128
sS"O'Fallon,MO"
p401
I79565
sS'Westminster,CA'
p402
I89971
sS'Topeka,KS'
p403
I127727
sS'Raleigh,NC'
p404
I406609
sS'Mount Vernon,NY'
p405
I67397
sS'Kalamazoo,MI'
p406
I74382
sS'Pittsburg,CA'
p407
I63510
sS'Norfolk,VA'
p408
I243135
sS'Miami Gardens,FL'
p409
I107559
sS'Boynton Beach,FL'
p410
I68380
sS'Simi Valley,CA'
p411
I124596
sS'Iowa City,IA'
p412
I68027
sS'Miami,FL'
p413
I400892
sS'Billings,MT'
p414
I104491
sS'Medford,OR'
p415
I75007
sS'Somerville,MA'
p416
I75900
sS'Deerfield Beach,FL'
p417
I75245
sS'Jacksonville,NC'
p418
I70705
sS'Lawton,OK'
p419
I97832
sS'Fremont,CA'
p420
I214613
sS'Albany,GA'
p421
I78971
sS'Beaumont,TX'
p422
I118355
sS'St. George,UT'
p423
I73078
sS'St. Joseph,MO'
p424
I74853
sS'Kenosha,WI'
p425
I99362
sS'Meridian,ID'
p426
I75324
sS'Upland,CA'
p427
I73991
sS'Flower Mound,TX'
p428
I66238
sS'Quincy,MA'
p429
I92486
sS'Odessa,TX'
p430
I99554
sS'Longview,TX'
p431
I80238
sS'Bolingbrook,IL'
p432
I73027
sS'Garland,TX'
p433
I227604
sS'Grand Rapids,MI'
p434
I188214
sS'Albany,NY'
p435
I97737
sS'Las Vegas,NV'
p436
I584641
sS'Gainesville,FL'
p437
I124433
sS'Arlington Heights,IL'
p438
I77009
sS'Newark,NJ'
p439
I277232
sS'Riverview,FL'
p440
I66415
sS'Danbury,CT'
p441
I81043
sS'Cape Coral,FL'
p442
I154668
sS'Rochester,NY'
p443
I210595
sS'Reading,PA'
p444
I88175
sS'Brooklyn Park,MN'
p445
I75936
sS'Buffalo,NY'
p446
I261210
sS'Bellingham,WA'
p447
I81067
sS'Huntington Beach,CA'
p448
I190541
sS'Boston,MA'
p449
I621383
sS'Tallahassee,FL'
p450
I181734
sS'Independence,MO'
p451
I117027
sS'Miami Beach,FL'
p452
I88110
sS'Kansas City,KS'
p453
I147798
sS'Flint,MI'
p454
I102231
sS'Dearborn,MI'
p455
I97895
sS'Pearland,TX'
p456
I90811
sS'El Monte,CA'
p457
I113614
sS'Denver,CO'
p458
I604414
sS'Yuma,AZ'
p459
I93409
sS'Pharr,TX'
p460
I70888
sS'North Richland Hills,TX'
p461
I63656
sS'Kenner,LA'
p462
I66681
sS'Thousand Oaks,CA'
p463
I127041
sS'Worcester,MA'
p464
I181264
sS'Portsmouth,VA'
p465
I95696
sS'Pueblo,CO'
p466
I106865
sS'Sunrise,FL'
p467
I84717
sS'Framingham,MA'
p468
I68461
sS'St. Charles,MO'
p469
I65993
sS'Highlands Ranch,CO'
p470
I95503
sS'Madison,WI'
p471
I233777
sS'Renton,WA'
p472
I91259
sS'West Valley City,UT'
p473
I130026
sS'Davie,FL'
p474
I92290
sS'Urban Honolulu,HI'
p475
I338909
sS'Newton,MA'
p476
I85302
sS'Wilmington,NC'
p477
I106819
sS'Vallejo,CA'
p478
I116217
sS'Cambridge,MA'
p479
I105337
sS'Clearwater,FL'
p480
I107697
sS'Fayetteville,NC'
p481
I201077
sS'Sioux Falls,SD'
p482
I153959
sS'Rochester,MN'
p483
I106963
sS'Redondo Beach,CA'
p484
I66825
sS'Santa Rosa,CA'
p485
I168244
sS'Apple Valley,CA'
p486
I69387
sS'Rio Rancho,NM'
p487
I87954
sS'Columbus,GA'
p488
I190417
sS'Bakersfield,CA'
p489
I348582
sS'Pembroke Pines,FL'
p490
I155252
sS'Joliet,IL'
p491
I150856
sS'Augusta-Richmond County,GA'
p492
I196386
sS'Olathe,KS'
p493
I126256
sS'Fullerton,CA'
p494
I135541
sS'Alexandria,VA'
p495
I140912
sS'Columbia,SC'
p496
I129139
sS'Athens-Clarke County,GA'
p497
I115465
sS'Greeley,CO'
p498
I93389
sS'Pomona,CA'
p499
I149225
sS'San Francisco,CA'
p500
I805463
sS'Paradise,NV'
p501
I215586
sS'Antioch,CA'
p502
I102745
sS'Denton,TX'
p503
I114100
sS'Centennial,CO'
p504
I100909
sS'Green Bay,WI'
p505
I104266
sS'Phoenix,AZ'
p506
I1449481
sS'Toms River,NJ'
p507
I89390
sS'Alameda,CA'
p508
I73981
sS'Carolina,PR'
p509
I160324
sS'Chicago,IL'
p510
I2698831
sS'Skokie,IL'
p511
I64861
sS'Fall River,MA'
p512
I88894
sS'Turlock,CA'
p513
I68663
sS'Orange,CA'
p514
I136803
sS'Racine,WI'
p515
I78906
sS'Folsom,CA'
p516
I72348
sS'Yonkers,NY'
p517
I196277
sS'League City,TX'
p518
I83848
sS'Lexington-Fayette,KY'
p519
I296765
sS'St. Paul,MN'
p520
I285439
sS'Portland,OR'
p521
I585429
sS'Wyoming,MI'
p522
I72209
sS'Murfreesboro,TN'
p523
I109220
sS'Atlanta,GA'
p524
I422338
sS'Carrollton,TX'
p525
I119759
sS'Caguas,PR'
p526
I81589
sS'Newport Beach,CA'
p527
I85442
sS'Fishers,IN'
p528
I77579
sS'Lakewood,CO'
p529
I143230
sS'Lakewood,CA'
p530
I80154
sS'Sandy,UT'
p531
I87818
sS'Murrieta,CA'
p532
I104108
sS'Louisville,KY'
p533
I598230
sS'Savannah,GA'
p534
I136651
sS'Hialeah,FL'
p535
I225461
sS'Downey,CA'
p536
I111922
sS'Eugene,OR'
p537
I156299
sS'San Juan,PR'
p538
I382900
sS'Shreveport,LA'
p539
I198934
sS'Hemet,CA'
p540
I79157
sS'Cranston,RI'
p541
I80424
sS'Naperville,IL'
p542
I141483
sS'Sparks,NV'
p543
I90504
sS'Johns Creek,GA'
p544
I77207
sS'Sugar Land,TX'
p545
I79472
sS'Dothan,AL'
p546
I66121
sS'Indio,CA'
p547
I76512
sS'Kent,WA'
p548
I92722
sS'Gulfport,MS'
p549
I68042
sS'Bridgeport,CT'
p550
I144521
sS'Temple,TX'
p551
I66686
sS'North Charleston,SC'
p552
I95548
sS'Mount Pleasant,SC'
p553
I68112
sS'Yorba Linda,CA'
p554
I64414
sS'Inglewood,CA'
p555
I109799
s.