(dp0
S'Ft Hood Aaf,TX'
p1
(F31.149999999999999
F97.719999999999999
tp2
sS'Hill AFB,UT'
p3
(F41.119999999999997
F111.97
tp4
sS'King Salmon,AK'
p5
(F58.68
F156.65000000000001
tp6
sS'Altus AFB,OK'
p7
(F34.670000000000002
F99.269999999999996
tp8
sS'Duffys Tavern,AK'
p9
(F62.729999999999997
F143.91999999999999
tp10
sS'Anchorage,AK'
p11
(F61.219999999999999
F149.84999999999999
tp12
sS'Lake Charles,LA'
p13
(F30.120000000000001
F93.219999999999999
tp14
sS'Wallops Sta,VA'
p15
(F37.850000000000001
F75.480000000000004
tp16
sS'Trinidad,CO'
p17
(F37.25
F104.33
tp18
sS'Muskogee,MO'
p19
(F35.659999999999997
F95.359999999999999
tp20
sS'Hastings,NE'
p21
(F40.600000000000001
F98.430000000000007
tp22
sS'Chattanooga,TN'
p23
(F35.030000000000001
F85.200000000000003
tp24
sS'Lubbock,TX'
p25
(F33.649999999999999
F101.81999999999999
tp26
sS'England AFB,LA'
p27
(F31.329999999999998
F92.549999999999997
tp28
sS'Kenai,AK'
p29
(F60.57
F151.25
tp30
sS'Melbourne,FL'
p31
(F28.100000000000001
F80.629999999999995
tp32
sS"Coeur d'Alene,ID"
p33
(F47.770000000000003
F116.81999999999999
tp34
sS'Eureka,NV'
p35
(F39.5
F115.97
tp36
sS'Mount Vernon,IL'
p37
(F38.32
F88.859999999999999
tp38
sS'Bettles,AK'
p39
(F66.920000000000002
F151.52000000000001
tp40
sS'Westfield,MA'
p41
(F42.170000000000002
F72.719999999999999
tp42
sS'Cross City,FL'
p43
(F29.620000000000001
F83.099999999999994
tp44
sS'Lanai-Lanai,HI'
p45
(F20.800000000000001
F156.94999999999999
tp46
sS'Cotulla,TX'
p47
(F28.449999999999999
F99.219999999999999
tp48
sS'Col. J Jabar,KS'
p49
(F37.75
F97.219999999999999
tp50
sS'Ketchikan,AK'
p51
(F55.350000000000001
F131.69999999999999
tp52
sS'Marysville,CA'
p53
(F39.100000000000001
F121.56999999999999
tp54
sS'Columbus AFB,MS'
p55
(F33.649999999999999
F88.450000000000003
tp56
sS'Nellis AFB,NV'
p57
(F36.229999999999997
F115.03
tp58
sS'Sanderson,TX'
p59
(F30.170000000000002
F102.42
tp60
sS'Hickory,NC'
p61
(F35.75
F81.379999999999995
tp62
sS'Cape Blanco,OR'
p63
(F43.380000000000003
F124.95
tp64
sS'Shishmaref,AK'
p65
(F66.269999999999996
F166.03
tp66
sS'Newburgh,NY'
p67
(F41.5
F74.099999999999994
tp68
sS'Holloman AFB,NM'
p69
(F32.850000000000001
F106.09999999999999
tp70
sS'Tustin,CA'
p71
(F33.700000000000003
F117.83
tp72
sS'Detroit,MI'
p73
(F42.229999999999997
F83.329999999999998
tp74
sS'Rapid City,SD'
p75
(F44.049999999999997
F103.06999999999999
tp76
sS'Mcallen,TX'
p77
(F26.18
F98.230000000000004
tp78
sS'Pope AFB,NC'
p79
(F35.170000000000002
F79.019999999999996
tp80
sS'Lawrence,MA'
p81
(F42.719999999999999
F71.120000000000005
tp82
sS'Alton,IL'
p83
(F38.880000000000003
F90.049999999999997
tp84
sS'Goodyear,AZ'
p85
(F33.420000000000002
F112.38
tp86
sS'Deadhorse,AK'
p87
(F70.200000000000003
F148.47
tp88
sS'Bangor,ME'
p89
(F44.799999999999997
F68.819999999999993
tp90
sS'Nome,AK'
p91
(F64.5
F165.43000000000001
tp92
sS'New Haven,CT'
p93
(F41.270000000000003
F72.900000000000006
tp94
sS'Greenville,TX'
p95
(F33.07
F96.069999999999993
tp96
sS'Mojave,CA'
p97
(F35.049999999999997
F118.15000000000001
tp98
sS'Ft Leonard,MO'
p99
(F37.75
F92.129999999999995
tp100
sS'Beatrice,NE'
p101
(F40.32
F96.75
tp102
sS'Hagerstown,MD'
p103
(F39.700000000000003
F77.719999999999999
tp104
sS'Philadelphia,PA'
p105
(F39.880000000000003
F75.25
tp106
sS'Saranac Lk,NY'
p107
(F44.380000000000003
F74.200000000000003
tp108
sS'Haines Hrbor,AK'
p109
(F59.229999999999997
F135.43000000000001
tp110
sS'Ft Smith,AR'
p111
(F35.329999999999998
F94.370000000000005
tp112
sS'Manteo,NC'
p113
(F35.920000000000002
F75.680000000000007
tp114
sS'Intl Falls,MN'
p115
(F48.57
F93.379999999999995
tp116
sS'Muscle Shoal,AL'
p117
(F34.75
F87.620000000000005
tp118
sS'Miramar,CA'
p119
(F32.869999999999997
F117.15000000000001
tp120
sS'Huntsville,AL'
p121
(F34.649999999999999
F86.769999999999996
tp122
sS'Tonopah,NV'
p123
(F38.07
F117.08
tp124
sS'Lk Palourde,LA'
p125
(F29.699999999999999
F91.099999999999994
tp126
sS'Page,OK'
p127
(F34.68
F94.620000000000005
tp128
sS'Shelter Cove,CA'
p129
(F40.030000000000001
F124.06999999999999
tp130
sS'Appleton,WI'
p131
(F44.25
F88.519999999999996
tp132
sS'Volens,VA'
p133
(F36.950000000000003
F78.980000000000004
tp134
sS'Sheridan,WY'
p135
(F44.770000000000003
F106.97
tp136
sS'Nenana,AK'
p137
(F64.549999999999997
F149.08000000000001
tp138
sS'Cherry Point,NC'
p139
(F34.899999999999999
F76.879999999999995
tp140
sS'Hoquiam,WA'
p141
(F46.969999999999999
F123.97
tp142
sS'Providence,RI'
p143
(F41.729999999999997
F71.430000000000007
tp144
sS'Mayport NAS,FL'
p145
(F30.399999999999999
F81.420000000000002
tp146
sS'North Omaha,NE'
p147
(F41.369999999999997
F96.019999999999996
tp148
sS'Leadville,CO'
p149
(F39.25
F106.3
tp150
sS'Livingston,MT'
p151
(F45.700000000000003
F110.43000000000001
tp152
sS'Jacksonville,FL'
p153
(F30.23
F81.680000000000007
tp154
sS'Selfridge,MI'
p155
(F42.619999999999997
F82.829999999999998
tp156
sS'Greensboro,NC'
p157
(F36.079999999999998
F79.950000000000003
tp158
sS'Pueblo,CO'
p159
(F38.280000000000001
F104.52
tp160
sS'Big River Lk,AK'
p161
(F60.82
F152.30000000000001
tp162
sS'China Lake,CA'
p163
(F35.68
F117.68000000000001
tp164
sS'Scottsbluff,NE'
p165
(F41.869999999999997
F103.59999999999999
tp166
sS'Los Angeles,CA'
p167
(F33.93
F118.40000000000001
tp168
sS'Homer,AK'
p169
(F59.630000000000003
F151.5
tp170
sS'Evansville,IN'
p171
(F38.049999999999997
F87.530000000000001
tp172
sS'Terre Haute,IN'
p173
(F39.450000000000003
F87.299999999999997
tp174
sS'Safford Awrs,AZ'
p175
(F32.82
F109.68000000000001
tp176
sS'Chippewa,MI'
p177
(F46.25
F84.469999999999999
tp178
sS'Salinas,CA'
p179
(F36.670000000000002
F121.59999999999999
tp180
sS'New Iberia,LA'
p181
(F30.030000000000001
F91.879999999999995
tp182
sS'Yakutat,AK'
p183
(F59.520000000000003
F139.66999999999999
tp184
sS'Corvallis,OR'
p185
(F44.5
F123.28
tp186
sS'Newark Intl,NJ'
p187
(F40.700000000000003
F74.170000000000002
tp188
sS'Port Alexndr,AK'
p189
(F56.25
F134.65000000000001
tp190
sS'Garden City,KS'
p191
(F37.93
F100.72
tp192
sS'Alexandria,LA'
p193
(F31.379999999999999
F92.299999999999997
tp194
sS'Fairfield,NJ'
p195
(F40.869999999999997
F74.280000000000001
tp196
sS'Ardmore,OK'
p197
(F34.299999999999997
F97.019999999999996
tp198
sS'Mansfield,OH'
p199
(F40.82
F82.519999999999996
tp200
sS'Eldred Rock,AK'
p201
(F59.619999999999997
F135.37
tp202
sS'Napa,CA'
p203
(F38.219999999999999
F122.28
tp204
sS'Worland,WY'
p205
(F43.969999999999999
F107.97
tp206
sS'Cape Hattera,NC'
p207
(F35.270000000000003
F75.549999999999997
tp208
sS'Point Mugu,CA'
p209
(F34.119999999999997
F119.12
tp210
sS'Schenectady,NY'
p211
(F42.850000000000001
F73.930000000000007
tp212
sS'Snowshoe Lk,AK'
p213
(F62.030000000000001
F146.66999999999999
tp214
sS'Gray AFB,TX'
p215
(F31.07
F97.829999999999998
tp216
sS'Westover,MA'
p217
(F42.200000000000003
F72.530000000000001
tp218
sS'Ithaca,NY'
p219
(F42.479999999999997
F76.469999999999999
tp220
sS'Lynchburg,VA'
p221
(F37.329999999999998
F79.200000000000003
tp222
sS'Robins AFB,GA'
p223
(F32.630000000000003
F83.599999999999994
tp224
sS'Reno,NV'
p225
(F39.5
F119.78
tp226
sS'Ord/Sharp,NE'
p227
(F41.619999999999997
F98.950000000000003
tp228
sS'Colorado Springs,CO'
p229
(F38.82
F104.72
tp230
sS'Ambler,AK'
p231
(F67.099999999999994
F157.84999999999999
tp232
sS'Salem,OR'
p233
(F44.920000000000002
F123.0
tp234
sS'Rifle,CO'
p235
(F39.530000000000001
F107.8
tp236
sS'Ocean City,MD'
p237
(F38.549999999999997
F75.129999999999995
tp238
sS'Baker,OR'
p239
(F44.829999999999998
F117.81999999999999
tp240
sS'Circle City,AK'
p241
(F65.829999999999998
F144.06999999999999
tp242
sS'Sioux City,IA'
p243
(F42.399999999999999
F96.379999999999995
tp244
sS'Cape Spence,AK'
p245
(F58.329999999999998
F137.05000000000001
tp246
sS'Elkins,WV'
p247
(F38.880000000000003
F79.849999999999994
tp248
sS'Santa Maria,CA'
p249
(F34.899999999999999
F120.45
tp250
sS'Dallas/FW,TX'
p251
(F32.899999999999999
F97.030000000000001
tp252
sS'Houston,TX'
p253
(F29.969999999999999
F95.349999999999994
tp254
sS'Nashua,NH'
p255
(F42.780000000000001
F71.519999999999996
tp256
sS'Eglin,FL'
p257
(F30.48
F86.530000000000001
tp258
sS'Boise City,ID'
p259
(F43.57
F116.22
tp260
sS'Laredo Intl,TX'
p261
(F27.530000000000001
F99.469999999999999
tp262
sS'Litchfield,MN'
p263
(F45.130000000000003
F94.519999999999996
tp264
sS'Vandenberg,CA'
p265
(F35.200000000000003
F120.95
tp266
sS'Nashville,TN'
p267
(F36.119999999999997
F86.680000000000007
tp268
sS'Lafayette,LA'
p269
(F30.199999999999999
F92.0
tp270
sS'Lemoore,CA'
p271
(F36.329999999999998
F119.95
tp272
sS'Augusta/Bush,GA'
p273
(F33.369999999999997
F81.969999999999999
tp274
sS'Poughkeepsie,NY'
p275
(F41.630000000000003
F73.879999999999995
tp276
sS'Adak,AK'
p277
(F51.880000000000003
F176.65000000000001
tp278
sS'Greenville,SC'
p279
(F34.899999999999999
F82.219999999999999
tp280
sS'St. Cloud,MN'
p281
(F45.549999999999997
F94.069999999999993
tp282
sS'Patrick AFB,FL'
p283
(F28.23
F80.599999999999994
tp284
sS'Johnson Cnty,KS'
p285
(F38.82
F94.879999999999995
tp286
sS'Milwaukee,WI'
p287
(F43.119999999999997
F88.049999999999997
tp288
sS'Bradford,PA'
p289
(F41.799999999999997
F78.629999999999995
tp290
sS'Latrobe,PA'
p291
(F40.280000000000001
F79.400000000000006
tp292
sS'Carlsbad,CA'
p293
(F33.130000000000003
F117.28
tp294
sS'Mason City,IA'
p295
(F43.149999999999999
F93.329999999999998
tp296
sS'Missoula,MT'
p297
(F46.920000000000002
F114.08
tp298
sS'Sidney Muni,NE'
p299
(F41.100000000000001
F102.98
tp300
sS'Mcclellan,CA'
p301
(F38.670000000000002
F121.40000000000001
tp302
sS'Norton AFB,CA'
p303
(F34.100000000000001
F117.23
tp304
sS'Kodiak,AK'
p305
(F57.75
F152.5
tp306
sS'Elk City,ID'
p307
(F45.82
F115.43000000000001
tp308
sS'Yellowstone,WY'
p309
(F44.549999999999997
F110.42
tp310
sS'Lihue-Kauai,HI'
p311
(F21.98
F159.34999999999999
tp312
sS'Iliamna,AK'
p313
(F59.75
F154.91999999999999
tp314
sS'Mccarthy,AK'
p315
(F61.43
F142.91999999999999
tp316
sS'Ottumwa,IA'
p317
(F41.100000000000001
F92.450000000000003
tp318
sS'Tucson,AZ'
p319
(F32.119999999999997
F110.93000000000001
tp320
sS'Taylorville,IL'
p321
(F39.530000000000001
F89.329999999999998
tp322
sS'Palmer,AK'
p323
(F61.600000000000001
F149.08000000000001
tp324
sS'Cannon,NM'
p325
(F34.380000000000003
F103.31999999999999
tp326
sS'Ypsilanti,MI'
p327
(F42.229999999999997
F83.530000000000001
tp328
sS'San Clemente,CA'
p329
(F33.020000000000003
F118.58
tp330
sS'Gadsden,AL'
p331
(F33.969999999999999
F86.090000000000003
tp332
sS'Sherman-Deni,TX'
p333
(F33.719999999999999
F96.670000000000002
tp334
sS'Annette Isl,AK'
p335
(F55.030000000000001
F131.56999999999999
tp336
sS'Canton,OH'
p337
(F40.920000000000002
F81.430000000000007
tp338
sS'Ironwood,MI'
p339
(F46.530000000000001
F90.129999999999995
tp340
sS'Ruskin,FL'
p341
(F27.969999999999999
F82.599999999999994
tp342
sS'Springfield,IL'
p343
(F39.850000000000001
F89.670000000000002
tp344
sS'Temple,TX'
p345
(F31.149999999999999
F97.420000000000002
tp346
sS'Tampa Intl,FL'
p347
(F27.969999999999999
F82.530000000000001
tp348
sS'Homestead,FL'
p349
(F25.48
F80.379999999999995
tp350
sS'Dallas,TX'
p351
(F32.729999999999997
F96.969999999999999
tp352
sS'Fort Collins,CO'
p353
(F40.579999999999998
F105.08
tp354
sS'Sand Point,AK'
p355
(F55.329999999999998
F160.5
tp356
sS'Dalhart,TX'
p357
(F36.020000000000003
F102.55
tp358
sS'Craig-Moffat,CO'
p359
(F40.5
F107.53
tp360
sS'Astoria,OR'
p361
(F46.149999999999999
F123.88
tp362
sS'Ellsworth Af,SD'
p363
(F44.149999999999999
F103.09999999999999
tp364
sS'Columbus,OH'
p365
(F40.0
F82.879999999999995
tp366
sS'Prospect Crk,AK'
p367
(F66.819999999999993
F150.65000000000001
tp368
sS'Pillaro Pt,CA'
p369
(F37.829999999999998
F122.83
tp370
sS'Harrisburg,PA'
p371
(F40.369999999999997
F77.420000000000002
tp372
sS'Gillette,WY'
p373
(F44.350000000000001
F105.53
tp374
sS'Bakersfield,CA'
p375
(F35.43
F119.05
tp376
sS'Neenah,WI'
p377
(F44.219999999999999
F88.530000000000001
tp378
sS'Detroit Laks,MN'
p379
(F46.82
F95.879999999999995
tp380
sS'Mercury,NV'
p381
(F36.619999999999997
F116.02
tp382
sS'Big Delta,AK'
p383
(F64.0
F145.72999999999999
tp384
sS'Thief River,MN'
p385
(F48.07
F96.180000000000007
tp386
sS'Intercoastal,LA'
p387
(F29.73
F92.120000000000005
tp388
sS'Rockford,IL'
p389
(F42.200000000000003
F89.099999999999994
tp390
sS'Falls City,NE'
p391
(F40.07
F95.579999999999998
tp392
sS'Rhinelander,WI'
p393
(F45.630000000000003
F89.450000000000003
tp394
sS'Attu,AK'
p395
(F53.5
F173.30000000000001
tp396
sS'Jackson,KY'
p397
(F37.600000000000001
F83.319999999999993
tp398
sS'Cold Bay,AK'
p399
(F55.200000000000003
F162.72
tp400
sS'Des Moines,IA'
p401
(F41.530000000000001
F93.650000000000006
tp402
sS'Spokane,WA'
p403
(F47.670000000000002
F117.33
tp404
sS'Upolo Pt Ln,HI'
p405
(F20.420000000000002
F156.47
tp406
sS'Mackall Aaf,NC'
p407
(F35.030000000000001
F79.5
tp408
sS'Charleston,SC'
p409
(F32.899999999999999
F80.030000000000001
tp410
sS'Redwood Falls,MN'
p411
(F44.549999999999997
F95.079999999999998
tp412
sS'Medicine Ldg,KS'
p413
(F37.299999999999997
F98.579999999999998
tp414
sS'Ukiah,CA'
p415
(F39.130000000000003
F123.2
tp416
sS'Offutt AFB,NE'
p417
(F41.119999999999997
F95.920000000000002
tp418
sS'Mekoryuk,AK'
p419
(F60.369999999999997
F166.27000000000001
tp420
sS'Hillsboro,OR'
p421
(F45.530000000000001
F122.95
tp422
sS'Springdale,AR'
p423
(F36.18
F94.129999999999995
tp424
sS'Anderson,SC'
p425
(F34.5
F82.719999999999999
tp426
sS'Volk Fld,WI'
p427
(F43.93
F90.269999999999996
tp428
sS'Owensboro,KY'
p429
(F37.75
F87.170000000000002
tp430
sS'Whiting Fld,FL'
p431
(F30.719999999999999
F87.019999999999996
tp432
sS'Livermore,CA'
p433
(F37.700000000000003
F121.81999999999999
tp434
sS'Ontario,CA'
p435
(F34.049999999999997
F117.62
tp436
sS'Oklahoma City,OK'
p437
(F35.530000000000001
F97.650000000000006
tp438
sS'Tooele,UT'
p439
(F40.170000000000002
F112.2
tp440
sS'South Brazos,TX'
p441
(F28.030000000000001
F95.870000000000005
tp442
sS'Oakland,CA'
p443
(F37.729999999999997
F122.22
tp444
sS'State Colleg,PA'
p445
(F40.850000000000001
F77.829999999999998
tp446
sS'Fort Dodge,IA'
p447
(F42.549999999999997
F94.180000000000007
tp448
sS'Raleigh-Durh,NC'
p449
(F35.869999999999997
F78.780000000000001
tp450
sS'Whiteman AFB,MO'
p451
(F38.729999999999997
F93.549999999999997
tp452
sS'Ft Lauderdale,FL'
p453
(F26.07
F80.150000000000006
tp454
sS'Jaffrey,NH'
p455
(F42.799999999999997
F72.0
tp456
sS'Waimea-Koha,HI'
p457
(F20.0
F156.12
tp458
sS'Logan,UT'
p459
(F41.780000000000001
F111.84999999999999
tp460
sS'Houlton,ME'
p461
(F46.130000000000003
F67.780000000000001
tp462
sS'Barter Islan,AK'
p463
(F70.129999999999995
F143.63
tp464
sS'Albuquerque,NM'
p465
(F35.049999999999997
F106.59999999999999
tp466
sS'Yuma Prv Gd,AZ'
p467
(F32.850000000000001
F114.40000000000001
tp468
sS'Mammoth Lks,CA'
p469
(F37.630000000000003
F118.92
tp470
sS'Cameron Heli,LA'
p471
(F29.780000000000001
F93.299999999999997
tp472
sS'Roseglen,ND'
p473
(F47.75
F101.83
tp474
sS'Moab,UT'
p475
(F38.770000000000003
F109.75
tp476
sS'Marianna,FL'
p477
(F30.84
F85.180000000000007
tp478
sS'Malta,ID'
p479
(F42.299999999999997
F113.37
tp480
sS'El Centro,CA'
p481
(F32.82
F115.68000000000001
tp482
sS'Ann Arbor,MI'
p483
(F42.219999999999999
F83.75
tp484
sS'Monteagle,TN'
p485
(F35.149999999999999
F85.510000000000005
tp486
sS'New York/LGA,NY'
p487
(F40.770000000000003
F73.900000000000006
tp488
sS'Eagle,CO'
p489
(F39.649999999999999
F106.92
tp490
sS'Torrance,CA'
p491
(F33.799999999999997
F118.33
tp492
sS'Glenview NAS,IL'
p493
(F42.079999999999998
F87.819999999999993
tp494
sS'Lebanon,NH'
p495
(F43.630000000000003
F72.299999999999997
tp496
sS'Lamar,CO'
p497
(F38.119999999999997
F102.59999999999999
tp498
sS'Macomb,IL'
p499
(F40.520000000000003
F90.659999999999997
tp500
sS'Little Rock,AR'
p501
(F34.829999999999998
F92.25
tp502
sS'Florence,SC'
p503
(F34.18
F79.719999999999999
tp504
sS'Phillips,MD'
p505
(F39.469999999999999
F76.170000000000002
tp506
sS'Lakehurst,NJ'
p507
(F40.030000000000001
F74.349999999999994
tp508
sS'Custer,SD'
p509
(F43.770000000000003
F103.59999999999999
tp510
sS'Vichy/Rolla,MO'
p511
(F38.130000000000003
F91.769999999999996
tp512
sS'Atlantic City,NJ'
p513
(F39.450000000000003
F74.569999999999993
tp514
sS'Beaver Falls,PA'
p515
(F40.75
F80.329999999999998
tp516
sS'Baton Rouge,LA'
p517
(F30.530000000000001
F91.150000000000006
tp518
sS'Montgomery,AL'
p519
(F32.299999999999997
F86.400000000000006
tp520
sS'Pontiac,MI'
p521
(F42.670000000000002
F83.420000000000002
tp522
sS'Manistee,MI'
p523
(F44.270000000000003
F86.25
tp524
sS'Fr Frigate,HI'
p525
(F24.449999999999999
F166.47
tp526
sS'Clarksburg,WV'
p527
(F39.280000000000001
F80.230000000000004
tp528
sS'Altoona,PA'
p529
(F40.299999999999997
F78.319999999999993
tp530
sS'Jefferson City,MO'
p531
(F38.600000000000001
F92.170000000000002
tp532
sS'Ft Riley,KS'
p533
(F39.049999999999997
F96.769999999999996
tp534
sS'West Plains,MO'
p535
(F36.880000000000003
F91.900000000000006
tp536
sS'Salisbury,MD'
p537
(F38.329999999999998
F75.5
tp538
sS'Seymour-John,NC'
p539
(F35.329999999999998
F77.969999999999999
tp540
sS'Pikeville,KY'
p541
(F37.479999999999997
F82.519999999999996
tp542
sS'Hattiesburg,MS'
p543
(F31.469999999999999
F89.329999999999998
tp544
sS'Minot Intl,ND'
p545
(F48.270000000000003
F101.28
tp546
sS'Ft Knox,KY'
p547
(F37.899999999999999
F85.969999999999999
tp548
sS'Mankato,MN'
p549
(F44.219999999999999
F93.920000000000002
tp550
sS'Cape St. Eli,AK'
p551
(F60.329999999999998
F145.0
tp552
sS'Santa Barb,CA'
p553
(F34.43
F119.83
tp554
sS'Eagle Range,UT'
p555
(F41.049999999999997
F113.06999999999999
tp556
sS'Paxson,AK'
p557
(F63.030000000000001
F145.5
tp558
sS'Wilmington,VT'
p559
(F42.880000000000003
F72.879999999999995
tp560
sS'Glasgow,MT'
p561
(F48.219999999999999
F106.62
tp562
sS'Alturas,CA'
p563
(F41.479999999999997
F120.53
tp564
sS'Myrtle Beach,SC'
p565
(F33.68
F78.930000000000007
tp566
sS'Beale AFB,CA'
p567
(F39.130000000000003
F121.45
tp568
sS'Decatur,IL'
p569
(F39.829999999999998
F88.870000000000005
tp570
sS'Wolfeboro,NH'
p571
(F44.0
F71.379999999999995
tp572
sS'Glendive,MT'
p573
(F47.130000000000003
F104.8
tp574
sS'Akron,CO'
p575
(F40.170000000000002
F103.22
tp576
sS'Tyndall AFB,FL'
p577
(F30.07
F85.579999999999998
tp578
sS'Gunnison,CO'
p579
(F38.549999999999997
F106.92
tp580
sS'Kankakee,IL'
p581
(F41.07
F87.849999999999994
tp582
sS'Islip,NY'
p583
(F40.780000000000001
F73.099999999999994
tp584
sS'Williams AFB,AZ'
p585
(F33.299999999999997
F111.67
tp586
sS'Chesapeake,VA'
p587
(F37.5
F76.200000000000003
tp588
sS'Redig,SD'
p589
(F45.159999999999997
F103.31999999999999
tp590
sS'Roanoke Muni,VA'
p591
(F37.32
F79.969999999999999
tp592
sS'White Sulph,WV'
p593
(F37.460000000000001
F80.200000000000003
tp594
sS'La Crosse,WI'
p595
(F43.869999999999997
F91.25
tp596
sS'Ellington Af,TX'
p597
(F29.620000000000001
F95.170000000000002
tp598
sS'Longview,TX'
p599
(F32.380000000000003
F94.719999999999999
tp600
sS'Clarksville,TN'
p601
(F36.619999999999997
F87.420000000000002
tp602
sS'Gary,IN'
p603
(F41.619999999999997
F87.420000000000002
tp604
sS'Los Alamitos,CA'
p605
(F33.780000000000001
F118.05
tp606
sS'Victoria,TX'
p607
(F28.850000000000001
F96.920000000000002
tp608
sS'Youngstown,OH'
p609
(F41.270000000000003
F80.670000000000002
tp610
sS'Redmond,OR'
p611
(F44.270000000000003
F121.15000000000001
tp612
sS'Burley,ID'
p613
(F42.530000000000001
F113.77
tp614
sS'Hawthorne,NV'
p615
(F38.549999999999997
F118.63
tp616
sS'Blairsville,PA'
p617
(F40.270000000000003
F79.090000000000003
tp618
sS'Healy River,AK'
p619
(F63.829999999999998
F149.0
tp620
sS'Kahului Maui,HI'
p621
(F20.899999999999999
F156.43000000000001
tp622
sS'Springfield,MO'
p623
(F37.229999999999997
F93.379999999999995
tp624
sS'Sioux Falls,SD'
p625
(F43.579999999999998
F96.730000000000004
tp626
sS'Sarasota,FL'
p627
(F27.399999999999999
F82.549999999999997
tp628
sS'Bluefield,WV'
p629
(F37.299999999999997
F81.219999999999999
tp630
sS'Jamestown,ND'
p631
(F46.920000000000002
F98.680000000000007
tp632
sS'Valdosta,GA'
p633
(F30.780000000000001
F83.280000000000001
tp634
sS'Ft Myers,FL'
p635
(F26.649999999999999
F81.870000000000005
tp636
sS'Bergstrom Af,TX'
p637
(F30.199999999999999
F97.680000000000007
tp638
sS'Long Beach,CA'
p639
(F33.82
F118.15000000000001
tp640
sS'Fargo,ND'
p641
(F46.899999999999999
F96.799999999999997
tp642
sS'Jordan,MT'
p643
(F47.329999999999998
F106.93000000000001
tp644
sS'Bremerton,WA'
p645
(F47.479999999999997
F122.77
tp646
sS'Big Spring,TX'
p647
(F32.299999999999997
F101.45
tp648
sS'Midland,TX'
p649
(F31.949999999999999
F102.18000000000001
tp650
sS'Dallas/Addis,TX'
p651
(F32.969999999999999
F96.829999999999998
tp652
sS'Teterboro,NJ'
p653
(F40.850000000000001
F74.049999999999997
tp654
sS'Bullfrog Mar,UT'
p655
(F37.5
F110.7
tp656
sS'Flagstaff,AZ'
p657
(F35.130000000000003
F111.67
tp658
sS'Pocatello,ID'
p659
(F42.920000000000002
F112.59999999999999
tp660
sS'Burlington,VT'
p661
(F44.469999999999999
F73.150000000000006
tp662
sS'Grand Island,NE'
p663
(F40.969999999999999
F98.319999999999993
tp664
sS'Ephrata,WA'
p665
(F47.32
F119.52
tp666
sS'Hobbs,NM'
p667
(F32.68
F103.2
tp668
sS'Juneau,AK'
p669
(F58.369999999999997
F134.58000000000001
tp670
sS'Umiat,AK'
p671
(F69.370000000000005
F152.13
tp672
sS'Hurlburt Fld,FL'
p673
(F30.43
F86.680000000000007
tp674
sS'Chadron,NE'
p675
(F42.829999999999998
F103.08
tp676
sS'Meridian NAS,MS'
p677
(F32.549999999999997
F88.569999999999993
tp678
sS'Carswell AFB,TX'
p679
(F32.780000000000001
F97.430000000000007
tp680
sS'Lawton,OK'
p681
(F34.57
F98.420000000000002
tp682
sS'Bemidji Muni,MN'
p683
(F47.5
F94.930000000000007
tp684
sS'Durango,CO'
p685
(F37.149999999999999
F107.75
tp686
sS'Groton,CT'
p687
(F41.329999999999998
F72.049999999999997
tp688
sS'Scott AFB,IL'
p689
(F38.549999999999997
F89.849999999999994
tp690
sS'College Stn,TX'
p691
(F30.579999999999998
F96.370000000000005
tp692
sS'Kaneohe Mca,HI'
p693
(F21.75
F158.28
tp694
sS'Rocky Mt,NC'
p695
(F35.850000000000001
F77.879999999999995
tp696
sS'Orlando,FL'
p697
(F28.550000000000001
F81.329999999999998
tp698
sS'Miles City,MT'
p699
(F46.43
F105.87
tp700
sS'Manchester,NH'
p701
(F42.93
F71.430000000000007
tp702
sS'Hanford,WA'
p703
(F46.57
F119.59999999999999
tp704
sS'Crestview,FL'
p705
(F30.780000000000001
F86.519999999999996
tp706
sS'Athens,GA'
p707
(F33.950000000000003
F83.319999999999993
tp708
sS'Wilmington,DE'
p709
(F39.670000000000002
F75.599999999999994
tp710
sS'Westhampton,NY'
p711
(F40.850000000000001
F72.629999999999995
tp712
sS'Albert Lea,MN'
p713
(F43.68
F93.370000000000005
tp714
sS'Mountn Home,ID'
p715
(F43.049999999999997
F115.87
tp716
sS'Tanana,AK'
p717
(F65.170000000000002
F152.09999999999999
tp718
sS'Kake Seaplan,AK'
p719
(F56.969999999999999
F133.94999999999999
tp720
sS'Merced,CA'
p721
(F37.280000000000001
F120.52
tp722
sS'Palm Springs,CA'
p723
(F33.829999999999998
F116.5
tp724
sS'Troy,AL'
p725
(F31.870000000000001
F86.019999999999996
tp726
sS'W Yellowston,MT'
p727
(F44.68
F111.12
tp728
sS'Blytheville,AR'
p729
(F35.969999999999999
F89.950000000000003
tp730
sS'Thermal,CA'
p731
(F33.630000000000003
F116.17
tp732
sS'Poplar Bluff,MO'
p733
(F36.770000000000003
F90.469999999999999
tp734
sS'Danville,IL'
p735
(F40.200000000000003
F87.599999999999994
tp736
sS'DeKalb,IL'
p737
(F41.93
F88.719999999999999
tp738
sS'Elfin Cove,AK'
p739
(F58.200000000000003
F136.34999999999999
tp740
sS'Laconia,NH'
p741
(F43.57
F71.430000000000007
tp742
sS'Kalispell,MT'
p743
(F48.299999999999997
F114.27
tp744
sS'Mather AFB,CA'
p745
(F38.57
F121.3
tp746
sS'Alliance,NE'
p747
(F42.049999999999997
F102.8
tp748
sS'Winter Park,CO'
p749
(F40.0
F105.87
tp750
sS'Maxwell AFB,AL'
p751
(F32.380000000000003
F86.370000000000005
tp752
sS'Charlottesvi,VA'
p753
(F38.130000000000003
F78.450000000000003
tp754
sS'Eau Claire,WI'
p755
(F44.869999999999997
F91.480000000000004
tp756
sS'New River,NC'
p757
(F34.700000000000003
F77.430000000000007
tp758
sS'North Is,CA'
p759
(F32.700000000000003
F117.2
tp760
sS'Sawyer AFB,MI'
p761
(F46.350000000000001
F87.400000000000006
tp762
sS'Aurora,OR'
p763
(F45.25
F122.75
tp764
sS'Richmond,VA'
p765
(F37.5
F77.329999999999998
tp766
sS'Hobart,OK'
p767
(F35.0
F99.049999999999997
tp768
sS'Monticello,NY'
p769
(F41.700000000000003
F74.799999999999997
tp770
sS'Provo,UT'
p771
(F40.219999999999999
F111.72
tp772
sS'Deer Valley,AZ'
p773
(F33.68
F112.08
tp774
sS'Hays,KS'
p775
(F38.850000000000001
F99.269999999999996
tp776
sS'Lakeland,FL'
p777
(F28.030000000000001
F81.950000000000003
tp778
sS'Salmon,ID'
p779
(F45.170000000000002
F114.47
tp780
sS'Farmingdale,NY'
p781
(F40.729999999999997
F73.430000000000007
tp782
sS'Yucca Flat,NV'
p783
(F37.579999999999998
F116.08
tp784
sS'Wheeling,WV'
p785
(F40.18
F80.650000000000006
tp786
sS'Dobbins AFB,GA'
p787
(F34.530000000000001
F84.870000000000005
tp788
sS'Soda Springs,ID'
p789
(F42.649999999999999
F111.58
tp790
sS'Bicycle Lk,CA'
p791
(F35.280000000000001
F116.62
tp792
sS'Mobile,AL'
p793
(F30.68
F88.25
tp794
sS'Wausau,WI'
p795
(F44.920000000000002
F89.620000000000005
tp796
sS'Port Arthur,TX'
p797
(F30.579999999999998
F94.019999999999996
tp798
sS'Winslow,AZ'
p799
(F35.020000000000003
F110.73
tp800
sS'Page,AZ'
p801
(F36.93
F111.45
tp802
sS'Sexton,OR'
p803
(F42.619999999999997
F123.37
tp804
sS'Asheville,NC'
p805
(F35.43
F82.549999999999997
tp806
sS'Chulitna,AK'
p807
(F62.880000000000003
F149.83000000000001
tp808
sS'Hayward,CA'
p809
(F37.649999999999999
F122.12
tp810
sS'Taos,NM'
p811
(F36.420000000000002
F105.56999999999999
tp812
sS'Birmingham,AL'
p813
(F33.57
F86.75
tp814
sS'Lewiston,MT'
p815
(F47.049999999999997
F109.45
tp816
sS'Miami/Opa,FL'
p817
(F25.920000000000002
F80.280000000000001
tp818
sS'Fairbanks,AK'
p819
(F64.819999999999993
F147.87
tp820
sS'Chase NAS,TX'
p821
(F28.370000000000001
F97.670000000000002
tp822
sS'San Mateo,CA'
p823
(F33.380000000000003
F117.58
tp824
sS'Port Angeles,WA'
p825
(F48.219999999999999
F123.67
tp826
sS'Cairo,IL'
p827
(F37.07
F89.219999999999999
tp828
sS'Boothville,LA'
p829
(F29.550000000000001
F89.670000000000002
tp830
sS'Farewell,AK'
p831
(F62.850000000000001
F154.47
tp832
sS'Wichita,KS'
p833
(F37.649999999999999
F97.430000000000007
tp834
sS'Pequot Lake,MN'
p835
(F46.600000000000001
F94.319999999999993
tp836
sS'Bristol,TN'
p837
(F36.479999999999997
F82.400000000000006
tp838
sS'Oak Harbor,WA'
p839
(F48.25
F122.68000000000001
tp840
sS'Findlay,OH'
p841
(F41.020000000000003
F83.670000000000002
tp842
sS'Rickenbacker,OH'
p843
(F39.82
F82.930000000000007
tp844
sS'Binghamton,NY'
p845
(F42.219999999999999
F75.980000000000004
tp846
sS'Kearney,NE'
p847
(F40.729999999999997
F99.0
tp848
sS'Saint Paul,MN'
p849
(F44.93
F93.049999999999997
tp850
sS'Mitchell,SD'
p851
(F43.770000000000003
F98.030000000000001
tp852
sS'Hanksville,UT'
p853
(F38.369999999999997
F110.72
tp854
sS'Fort Eustis,VA'
p855
(F37.130000000000003
F76.620000000000005
tp856
sS'Syracuse,NY'
p857
(F43.119999999999997
F76.120000000000005
tp858
sS'Muncie,IN'
p859
(F40.229999999999997
F85.379999999999995
tp860
sS'Norfolk Rgnl,VA'
p861
(F36.899999999999999
F76.200000000000003
tp862
sS'Payson,AZ'
p863
(F34.229999999999997
F111.33
tp864
sS'Parkersburg,WV'
p865
(F39.350000000000001
F81.430000000000007
tp866
sS'Cape Decis,AK'
p867
(F56.0
F134.22
tp868
sS'Park Rapids,MN'
p869
(F46.899999999999999
F95.069999999999993
tp870
sS'Hoonah Seapl,AK'
p871
(F58.100000000000001
F135.44999999999999
tp872
sS'Concord,NH'
p873
(F43.200000000000003
F71.5
tp874
sS'Los Alamos,NM'
p875
(F35.880000000000003
F106.28
tp876
sS'Brunswick,ME'
p877
(F43.880000000000003
F69.930000000000007
tp878
sS'Visalia,CA'
p879
(F36.32
F119.40000000000001
tp880
sS'South Bend,IN'
p881
(F41.700000000000003
F86.319999999999993
tp882
sS'Danville,VA'
p883
(F36.57
F79.329999999999998
tp884
sS'Yuma Mcas,AZ'
p885
(F32.649999999999999
F114.62
tp886
sS'Norwood,MA'
p887
(F42.18
F71.180000000000007
tp888
sS'Barksdale,LA'
p889
(F32.5
F93.670000000000002
tp890
sS'Grand Isle,LA'
p891
(F29.18
F90.069999999999993
tp892
sS'Marquette,MI'
p893
(F46.880000000000003
F87.950000000000003
tp894
sS'Pendleton,OR'
p895
(F45.68
F118.84999999999999
tp896
sS'Reese AFB,TX'
p897
(F33.600000000000001
F102.05
tp898
sS'Elkhart,IN'
p899
(F41.719999999999999
F86.0
tp900
sS'Modesto,CA'
p901
(F37.630000000000003
F120.95
tp902
sS'Burlington,WA'
p903
(F48.5
F122.33
tp904
sS'Fort Lewis,WA'
p905
(F47.079999999999998
F122.58
tp906
sS'Hyannis,MA'
p907
(F41.670000000000002
F70.280000000000001
tp908
sS'Ogdensburg,NY'
p909
(F44.68
F75.400000000000006
tp910
sS'Watertown,NY'
p911
(F44.0
F76.019999999999996
tp912
sS'Goodland,KS'
p913
(F39.369999999999997
F101.7
tp914
sS'Greenwood,MS'
p915
(F33.5
F90.079999999999998
tp916
sS'Ke-Ahole/Kon,HI'
p917
(F19.75
F156.05000000000001
tp918
sS'Beaumont,CA'
p919
(F33.93
F116.95
tp920
sS'Atlanta/Dklb,GA'
p921
(F33.880000000000003
F84.299999999999997
tp922
sS'Sitkinak,AK'
p923
(F56.880000000000003
F154.19999999999999
tp924
sS'Saint George,UT'
p925
(F37.079999999999998
F113.59999999999999
tp926
sS'Bakalar Af,IN'
p927
(F39.380000000000003
F86.5
tp928
sS'Santa Fe,NM'
p929
(F35.619999999999997
F106.08
tp930
sS'Keene,NH'
p931
(F42.899999999999999
F72.269999999999996
tp932
sS'Vance AFB,OK'
p933
(F36.329999999999998
F97.920000000000002
tp934
sS'Diamond Sho,NC'
p935
(F35.25
F75.5
tp936
sS'Nasa Shuttle,FL'
p937
(F28.620000000000001
F80.680000000000007
tp938
sS'Barrow,AK'
p939
(F71.299999999999997
F156.78
tp940
sS'Kelly AFB,TX'
p941
(F29.379999999999999
F98.579999999999998
tp942
sS'Fort Lauderdale,FL'
p943
(F26.129999999999999
F80.129999999999995
tp944
sS'Atlanta/Fltn,GA'
p945
(F33.780000000000001
F84.519999999999996
tp946
sS'Lazy Mtn,AK'
p947
(F61.630000000000003
F149.03
tp948
sS"Devil's Lake,ND"
p949
(F48.100000000000001
F98.870000000000005
tp950
sS'Hancock,MI'
p951
(F47.170000000000002
F88.5
tp952
sS'Omaha/Eppley,NE'
p953
(F41.299999999999997
F95.900000000000006
tp954
sS'George AFB,CA'
p955
(F34.579999999999998
F117.38
tp956
sS'Mount Wilson,CA'
p957
(F34.229999999999997
F118.06999999999999
tp958
sS'Houghton Lake,MI'
p959
(F44.369999999999997
F84.680000000000007
tp960
sS'El Dorado,AR'
p961
(F33.219999999999999
F92.799999999999997
tp962
sS'Wolf Point,MT'
p963
(F48.100000000000001
F105.58
tp964
sS'Moffet NAS,CA'
p965
(F37.420000000000002
F122.05
tp966
sS'Mt Washingtn,NH'
p967
(F44.270000000000003
F71.299999999999997
tp968
sS'Monterey,CA'
p969
(F36.579999999999998
F121.84999999999999
tp970
sS'Cecil,FL'
p971
(F30.219999999999999
F81.879999999999995
tp972
sS'Muir,PA'
p973
(F40.43
F76.569999999999993
tp974
sS'Roosevelt,UT'
p975
(F40.5
F110.63
tp976
sS'Kilauea Pt,HI'
p977
(F22.379999999999999
F159.66999999999999
tp978
sS'Patuxent,MD'
p979
(F38.280000000000001
F76.400000000000006
tp980
sS'St. Johnsbury,VT'
p981
(F44.420000000000002
F72.019999999999996
tp982
sS'Dickenson,ND'
p983
(F46.780000000000001
F102.8
tp984
sS'Meacham,OR'
p985
(F45.5
F118.40000000000001
tp986
sS'Clayton,NM'
p987
(F36.450000000000003
F103.15000000000001
tp988
sS'Elizabeth,NC'
p989
(F36.270000000000003
F76.180000000000007
tp990
sS'Meridian/Key,MS'
p991
(F32.329999999999998
F88.75
tp992
sS'Middleton Is,AK'
p993
(F59.43
F146.33000000000001
tp994
sS'Corona,NM'
p995
(F34.100000000000001
F105.68000000000001
tp996
sS'Everet/Paine,WA'
p997
(F47.920000000000002
F122.28
tp998
sS'Walnut Ridge,AR'
p999
(F36.130000000000003
F90.930000000000007
tp1000
sS'West Palm Beach,FL'
p1001
(F26.68
F80.120000000000005
tp1002
sS'Seward,AK'
p1003
(F60.18
F149.75
tp1004
sS'Washington,DC'
p1005
(F38.890000000000001
F77.030000000000001
tp1006
sS'Middletown,PA'
p1007
(F40.200000000000003
F76.769999999999996
tp1008
sS'Huron,SD'
p1009
(F44.380000000000003
F98.219999999999999
tp1010
sS'Bethel,AK'
p1011
(F60.780000000000001
F161.80000000000001
tp1012
sS'Rutland,VT'
p1013
(F43.530000000000001
F73.950000000000003
tp1014
sS'S Marsh Isl,LA'
p1015
(F28.300000000000001
F91.980000000000004
tp1016
sS'North Bend,OR'
p1017
(F43.420000000000002
F124.25
tp1018
sS'Nth Philadel,PA'
p1019
(F40.079999999999998
F75.019999999999996
tp1020
sS'Red Bluff,CA'
p1021
(F40.149999999999999
F122.25
tp1022
sS'Rockport,TX'
p1023
(F28.079999999999998
F97.030000000000001
tp1024
sS'Caribou Mun,ME'
p1025
(F46.869999999999997
F68.019999999999996
tp1026
sS'Yankton,SD'
p1027
(F42.920000000000002
F97.379999999999995
tp1028
sS'Charlotte,NC'
p1029
(F35.219999999999999
F80.930000000000007
tp1030
sS'Ely/Yelland,NV'
p1031
(F39.280000000000001
F114.84999999999999
tp1032
sS'Wichita Flls,TX'
p1033
(F33.979999999999997
F98.5
tp1034
sS'Fort Carson,CO'
p1035
(F38.68
F104.77
tp1036
sS'Peoria,IL'
p1037
(F40.670000000000002
F89.680000000000007
tp1038
sS'Gulkana,AK'
p1039
(F62.149999999999999
F145.44999999999999
tp1040
sS'Chino,CA'
p1041
(F33.969999999999999
F117.63
tp1042
sS'Cleveland,OH'
p1043
(F41.420000000000002
F81.870000000000005
tp1044
sS'Massena,NY'
p1045
(F44.93
F74.849999999999994
tp1046
sS'Cheyenne,WY'
p1047
(F41.149999999999999
F104.81999999999999
tp1048
sS'Gambell,AK'
p1049
(F63.770000000000003
F171.72999999999999
tp1050
sS'Dillingham,AK'
p1051
(F59.049999999999997
F158.52000000000001
tp1052
sS'Port Clarnce,AK'
p1053
(F65.25
F166.87
tp1054
sS'Seul Choix,MI'
p1055
(F45.920000000000002
F85.920000000000002
tp1056
sS'Caliente,NV'
p1057
(F37.619999999999997
F114.52
tp1058
sS'Olympia,WA'
p1059
(F46.969999999999999
F122.90000000000001
tp1060
sS'Bedford,MA'
p1061
(F42.469999999999999
F71.280000000000001
tp1062
sS'Luke,AZ'
p1063
(F33.530000000000001
F112.38
tp1064
sS'Elko,NV'
p1065
(F40.829999999999998
F115.78
tp1066
sS'San Francisco,CA'
p1067
(F37.619999999999997
F122.38
tp1068
sS'Austin,TX'
p1069
(F30.300000000000001
F97.700000000000003
tp1070
sS'Menominee,MI'
p1071
(F45.119999999999997
F87.629999999999995
tp1072
sS'Yakima,WA'
p1073
(F46.57
F120.53
tp1074
sS'Pellston,MI'
p1075
(F45.57
F84.799999999999997
tp1076
sS'Watertown,SD'
p1077
(F44.920000000000002
F97.150000000000006
tp1078
sS'Burns,OR'
p1079
(F43.600000000000001
F118.95
tp1080
sS'Concord,CA'
p1081
(F37.979999999999997
F122.05
tp1082
sS'Mattoon,IL'
p1083
(F39.479999999999997
F88.280000000000001
tp1084
sS'Chamberlain,SD'
p1085
(F43.75
F99.319999999999993
tp1086
sS'Elmira,NY'
p1087
(F42.170000000000002
F76.900000000000006
tp1088
sS'Waco-Madison,TX'
p1089
(F31.620000000000001
F97.219999999999999
tp1090
sS'Imperial,NE'
p1091
(F40.530000000000001
F101.63
tp1092
sS'Fort Worth,TX'
p1093
(F32.82
F97.349999999999994
tp1094
sS'Stockton,CA'
p1095
(F37.899999999999999
F121.25
tp1096
sS'Hutchinson,KS'
p1097
(F38.07
F97.870000000000005
tp1098
sS'Morgantown,WV'
p1099
(F39.649999999999999
F79.920000000000002
tp1100
sS'Sun Valley,ID'
p1101
(F43.5
F114.3
tp1102
sS'Grand Canyon,AZ'
p1103
(F35.950000000000003
F112.15000000000001
tp1104
sS'Wilmington,NC'
p1105
(F34.270000000000003
F77.920000000000002
tp1106
sS'Valdez 2,AK'
p1107
(F61.130000000000003
F146.25
tp1108
sS'Minchumina,AK'
p1109
(F63.899999999999999
F152.27000000000001
tp1110
sS'Montpelier,VT'
p1111
(F44.200000000000003
F72.569999999999993
tp1112
sS'Mcgrath,AK'
p1113
(F62.969999999999999
F155.62
tp1114
sS'Siskiyou,CA'
p1115
(F41.780000000000001
F122.47
tp1116
sS'Memphis Intl,TN'
p1117
(F35.049999999999997
F90.0
tp1118
sS'Honolulu Int,HI'
p1119
(F21.350000000000001
F157.93000000000001
tp1120
sS'Portland,ME'
p1121
(F43.649999999999999
F70.319999999999993
tp1122
sS'Fairmont,MN'
p1123
(F43.649999999999999
F94.420000000000002
tp1124
sS'Grangeville,ID'
p1125
(F45.920000000000002
F116.13
tp1126
sS'Greenville,MS'
p1127
(F33.479999999999997
F90.980000000000004
tp1128
sS'Lewiston,ID'
p1129
(F46.380000000000003
F117.02
tp1130
sS'Erie,PA'
p1131
(F42.079999999999998
F80.180000000000007
tp1132
sS'Columbus Osu,OH'
p1133
(F40.079999999999998
F83.069999999999993
tp1134
sS'Harlingen,TX'
p1135
(F26.23
F97.670000000000002
tp1136
sS'San Jose,CA'
p1137
(F37.369999999999997
F121.92
tp1138
sS'Tahneta Pass,AK'
p1139
(F61.899999999999999
F147.30000000000001
tp1140
sS'Wales,AK'
p1141
(F66.030000000000001
F168.08000000000001
tp1142
sS'Greenville,ME'
p1143
(F45.780000000000001
F69.629999999999995
tp1144
sS'London,KY'
p1145
(F37.079999999999998
F84.069999999999993
tp1146
sS'Douglas,AZ'
p1147
(F31.449999999999999
F109.59999999999999
tp1148
sS'Talkeetna,AK'
p1149
(F62.299999999999997
F150.09999999999999
tp1150
sS'Fort Belvoir,VA'
p1151
(F38.719999999999999
F77.180000000000007
tp1152
sS'Eugene Is.,LA'
p1153
(F28.469999999999999
F91.780000000000001
tp1154
sS'Chico,CA'
p1155
(F39.780000000000001
F121.84999999999999
tp1156
sS'Stampede Pas,WA'
p1157
(F47.280000000000001
F121.33
tp1158
sS'Dyersburg,TN'
p1159
(F36.020000000000003
F89.400000000000006
tp1160
sS'Milford,UT'
p1161
(F38.719999999999999
F113.03
tp1162
sS'Lander,WY'
p1163
(F42.82
F108.73
tp1164
sS'Hayes River,AK'
p1165
(F61.979999999999997
F152.08000000000001
tp1166
sS'Broken Bow,NE'
p1167
(F41.43
F99.650000000000006
tp1168
sS'Morgan City,LA'
p1169
(F29.699999999999999
F91.200000000000003
tp1170
sS'Oliktok Dew,AK'
p1171
(F70.5
F149.88
tp1172
sS'Buckley,CO'
p1173
(F39.719999999999999
F104.75
tp1174
sS'Ontario,OR'
p1175
(F44.020000000000003
F117.02
tp1176
sS'Hibbing,MN'
p1177
(F47.380000000000003
F92.849999999999994
tp1178
sS'Santa Ana,CA'
p1179
(F33.670000000000002
F117.88
tp1180
sS'Sterling,IL'
p1181
(F41.740000000000002
F89.670000000000002
tp1182
sS'Athens/Albany,OH'
p1183
(F39.210000000000001
F82.230000000000004
tp1184
sS'Tyler/Pounds,TX'
p1185
(F32.369999999999997
F95.400000000000006
tp1186
sS'Riverton,WY'
p1187
(F43.049999999999997
F108.45
tp1188
sS'StLouis/Spirit,MO'
p1189
(F38.649999999999999
F90.629999999999995
tp1190
sS'Chatham,MA'
p1191
(F41.670000000000002
F69.969999999999999
tp1192
sS'Utica,NY'
p1193
(F43.149999999999999
F75.379999999999995
tp1194
sS'Mccook,NE'
p1195
(F40.219999999999999
F100.58
tp1196
sS'Fort Hunter,CA'
p1197
(F36.0
F121.31999999999999
tp1198
sS'Kansas City,MO'
p1199
(F39.119999999999997
F94.599999999999994
tp1200
sS'Otis ANGB,MA'
p1201
(F41.649999999999999
F70.519999999999996
tp1202
sS'Aniak,AK'
p1203
(F61.579999999999998
F159.53
tp1204
sS'Austin,NV'
p1205
(F39.5
F117.08
tp1206
sS'Franklin,PA'
p1207
(F41.380000000000003
F79.870000000000005
tp1208
sS'Dover,DE'
p1209
(F39.130000000000003
F75.469999999999999
tp1210
sS'Palo Alto,CA'
p1211
(F37.469999999999999
F122.12
tp1212
sS'Limon,CO'
p1213
(F39.18
F103.7
tp1214
sS'Molokai,HI'
p1215
(F21.149999999999999
F157.09999999999999
tp1216
sS'Camp Pendlet,CA'
p1217
(F33.299999999999997
F117.34999999999999
tp1218
sS'White Plains,NY'
p1219
(F41.07
F73.719999999999999
tp1220
sS'Grand Forks,ND'
p1221
(F47.969999999999999
F97.400000000000006
tp1222
sS'Muskegon,MI'
p1223
(F43.170000000000002
F86.25
tp1224
sS'Burbank,CA'
p1225
(F34.200000000000003
F118.37
tp1226
sS'Knoxville,TN'
p1227
(F35.82
F83.980000000000004
tp1228
sS'Twenty9 Palm,CA'
p1229
(F34.280000000000001
F116.15000000000001
tp1230
sS'Tucumcari,NM'
p1231
(F35.18
F103.59999999999999
tp1232
sS'Tulsa,OK'
p1233
(F36.200000000000003
F95.900000000000006
tp1234
sS'Kirksville,MO'
p1235
(F40.100000000000001
F92.549999999999997
tp1236
sS'Monroe,LA'
p1237
(F32.520000000000003
F92.049999999999997
tp1238
sS'Vandalia,IL'
p1239
(F38.990000000000002
F89.170000000000002
tp1240
sS'Bartlesville,OK'
p1241
(F36.75
F96.0
tp1242
sS'Greeley-Wld,CO'
p1243
(F40.43
F104.63
tp1244
sS'Chicago/Meigs,IL'
p1245
(F41.869999999999997
F87.620000000000005
tp1246
sS'Concordia,KS'
p1247
(F39.549999999999997
F97.650000000000006
tp1248
sS'Slidel,LA'
p1249
(F30.350000000000001
F89.819999999999993
tp1250
sS'Galesburg,IL'
p1251
(F40.93
F90.430000000000007
tp1252
sS'Fort Wayne,IN'
p1253
(F41.0
F85.200000000000003
tp1254
sS'Alma,GA'
p1255
(F31.530000000000001
F82.519999999999996
tp1256
sS'Blanding,UT'
p1257
(F38.030000000000001
F109.78
tp1258
sS'Spickard,MO'
p1259
(F40.25
F93.719999999999999
tp1260
sS'La Grande,OR'
p1261
(F45.280000000000001
F118.0
tp1262
sS'Cp Girardeau,MO'
p1263
(F37.229999999999997
F89.579999999999998
tp1264
sS'Cut Bank,MT'
p1265
(F48.600000000000001
F112.37
tp1266
sS'Laurel,MS'
p1267
(F31.670000000000002
F89.170000000000002
tp1268
sS'Killeen,TX'
p1269
(F31.079999999999998
F97.680000000000007
tp1270
sS'Gallup/Clark,NM'
p1271
(F35.520000000000003
F108.78
tp1272
sS'Big Bear Apt,CA'
p1273
(F34.270000000000003
F116.68000000000001
tp1274
sS'Kerrville,TX'
p1275
(F29.98
F99.079999999999998
tp1276
sS'Baltimore,MD'
p1277
(F39.329999999999998
F76.420000000000002
tp1278
sS'Truckee-Tahoe,CA'
p1279
(F39.32
F120.13
tp1280
sS'Maui,HI'
p1281
(F20.969999999999999
F156.83000000000001
tp1282
sS'Marion,IL'
p1283
(F37.75
F89.0
tp1284
sS'Pierre,SD'
p1285
(F44.380000000000003
F100.28
tp1286
sS'San Carlos,CA'
p1287
(F37.520000000000003
F122.25
tp1288
sS'Oxnard,CA'
p1289
(F34.200000000000003
F119.2
tp1290
sS'Fort Yukon,AK'
p1291
(F66.569999999999993
F145.27000000000001
tp1292
sS'Roseburg,OR'
p1293
(F43.229999999999997
F123.37
tp1294
sS'Fort Benning,GA'
p1295
(F32.329999999999998
F85.0
tp1296
sS'Jackson,MS'
p1297
(F32.32
F90.079999999999998
tp1298
sS'Mount Shasta,CA'
p1299
(F41.32
F122.31999999999999
tp1300
sS'Topeka/Forbe,KS'
p1301
(F38.950000000000003
F95.670000000000002
tp1302
sS'Lancaster,CA'
p1303
(F34.729999999999997
F118.22
tp1304
sS'Hawthorne,CA'
p1305
(F33.920000000000002
F118.33
tp1306
sS'San Jose/Rei,CA'
p1307
(F37.329999999999998
F121.81999999999999
tp1308
sS'Spencer,IA'
p1309
(F43.170000000000002
F95.150000000000006
tp1310
sS'Spartanburg,SC'
p1311
(F34.920000000000002
F81.959999999999994
tp1312
sS'Sanford,FL'
p1313
(F28.780000000000001
F81.25
tp1314
sS'Ft Leavnwrth,KS'
p1315
(F39.369999999999997
F94.920000000000002
tp1316
sS'Havre,MT'
p1317
(F48.549999999999997
F109.77
tp1318
sS'Amarillo,TX'
p1319
(F35.229999999999997
F101.7
tp1320
sS'Brownsville,TX'
p1321
(F25.899999999999999
F97.430000000000007
tp1322
sS'Pittsfield,MA'
p1323
(F42.259999999999998
F73.180000000000007
tp1324
sS'Scottsdale,AZ'
p1325
(F33.619999999999997
F111.92
tp1326
sS'Smyrna,TN'
p1327
(F36.0
F86.5
tp1328
sS'Millville,NJ'
p1329
(F39.369999999999997
F75.069999999999993
tp1330
sS'Enid,OK'
p1331
(F36.380000000000003
F97.799999999999997
tp1332
sS'New York,NY'
p1333
(F40.770000000000003
F73.980000000000004
tp1334
sS'Wilkes-Barre,PA'
p1335
(F41.329999999999998
F75.730000000000004
tp1336
sS'Selma,AL'
p1337
(F32.340000000000003
F86.989999999999995
tp1338
sS'Ogden,UT'
p1339
(F41.18
F112.02
tp1340
sS'El Toro,CA'
p1341
(F33.670000000000002
F117.73
tp1342
sS'Salina,KS'
p1343
(F38.799999999999997
F97.650000000000006
tp1344
sS'Ainsworth,NE'
p1345
(F42.579999999999998
F99.980000000000004
tp1346
sS'Valdez,AK'
p1347
(F61.130000000000003
F146.34999999999999
tp1348
sS'Jackson,MI'
p1349
(F42.270000000000003
F84.469999999999999
tp1350
sS'Dayton,OH'
p1351
(F39.899999999999999
F84.200000000000003
tp1352
sS'Wink,TX'
p1353
(F31.780000000000001
F103.2
tp1354
sS'Crescent City,CA'
p1355
(F41.780000000000001
F124.23
tp1356
sS'Shemy,AK'
p1357
(F53.200000000000003
F174.13
tp1358
sS'Salida,CO'
p1359
(F38.530000000000001
F106.05
tp1360
sS'Emporia,KS'
p1361
(F38.329999999999998
F96.200000000000003
tp1362
sS'Bradford,IL'
p1363
(F41.159999999999997
F89.599999999999994
tp1364
sS'Eureka,CA'
p1365
(F41.329999999999998
F124.28
tp1366
sS'Augusta,ME'
p1367
(F44.32
F69.799999999999997
tp1368
sS'Fergus Falls,MN'
p1369
(F46.299999999999997
F96.069999999999993
tp1370
sS'Indianapolis,IN'
p1371
(F39.729999999999997
F86.269999999999996
tp1372
sS'Port Heiden,AK'
p1373
(F56.950000000000003
F158.62
tp1374
sS'Nantucket,MA'
p1375
(F41.25
F70.069999999999993
tp1376
sS'Montrose,CO'
p1377
(F38.5
F107.88
tp1378
sS'Edwards AFB,CA'
p1379
(F34.899999999999999
F117.88
tp1380
sS'Hot Springs,AR'
p1381
(F34.479999999999997
F93.099999999999994
tp1382
sS'Fallon NAS,NV'
p1383
(F39.420000000000002
F118.7
tp1384
sS'Alice,TX'
p1385
(F27.73
F98.030000000000001
tp1386
sS'Auburn,AL'
p1387
(F32.670000000000002
F85.439999999999998
tp1388
sS'Mosinee,WI'
p1389
(F44.780000000000001
F89.670000000000002
tp1390
sS'Valentine,NE'
p1391
(F42.869999999999997
F100.55
tp1392
sS'Laramie,WY'
p1393
(F41.32
F105.68000000000001
tp1394
sS'Cedar Rapids,IA'
p1395
(F41.880000000000003
F91.700000000000003
tp1396
sS'Philipsburg,PA'
p1397
(F41.469999999999999
F78.129999999999995
tp1398
sS'Kingman,AZ'
p1399
(F35.270000000000003
F113.95
tp1400
sS'D.w. Hooks,TX'
p1401
(F30.07
F95.549999999999997
tp1402
sS'Houston/Hobby,TX'
p1403
(F29.649999999999999
F95.280000000000001
tp1404
sS'Northway,AK'
p1405
(F62.969999999999999
F141.93000000000001
tp1406
sS'San Diego,CA'
p1407
(F32.82
F116.97
tp1408
sS'New Orleans,LA'
p1409
(F30.030000000000001
F90.030000000000001
tp1410
sS'Duke Fld,FL'
p1411
(F30.649999999999999
F86.519999999999996
tp1412
sS'Martinsburg,WV'
p1413
(F39.399999999999999
F77.980000000000004
tp1414
sS'Davis-M AFB,AZ'
p1415
(F32.170000000000002
F110.88
tp1416
sS'Pittsburgh,PA'
p1417
(F40.5
F80.219999999999999
tp1418
sS'Green River,UT'
p1419
(F39.0
F110.15000000000001
tp1420
sS'Crossville,TN'
p1421
(F35.950000000000003
F85.079999999999998
tp1422
sS'Huntington,WV'
p1423
(F38.369999999999997
F82.549999999999997
tp1424
sS'Salem,IL'
p1425
(F38.630000000000003
F88.959999999999994
tp1426
sS'Air Force A,CO'
p1427
(F39.520000000000003
F105.34999999999999
tp1428
sS'Manhatten,KS'
p1429
(F39.149999999999999
F96.670000000000002
tp1430
sS'Palmdale,CA'
p1431
(F35.049999999999997
F118.13
tp1432
sS'Hot Springs,NC'
p1433
(F35.899999999999999
F82.819999999999993
tp1434
sS'Battle Creek,MI'
p1435
(F42.299999999999997
F85.230000000000004
tp1436
sS'Clinton,OK'
p1437
(F35.350000000000001
F99.200000000000003
tp1438
sS'Niagara Fall,NY'
p1439
(F43.100000000000001
F78.950000000000003
tp1440
sS'Mobile Aeros,AL'
p1441
(F30.629999999999999
F88.069999999999993
tp1442
sS'Eagle,AK'
p1443
(F64.769999999999996
F141.15000000000001
tp1444
sS'Wrangell,AK'
p1445
(F56.479999999999997
F132.37
tp1446
sS'Fresno,CA'
p1447
(F36.770000000000003
F119.72
tp1448
sS'Paris/Cox,TX'
p1449
(F33.630000000000003
F95.450000000000003
tp1450
sS'New London,CT'
p1451
(F41.299999999999997
F72.079999999999998
tp1452
sS'Daggett,CA'
p1453
(F34.869999999999997
F116.78
tp1454
sS'Presque Isle,ME'
p1455
(F46.68
F68.049999999999997
tp1456
sS'Golden Trian,MS'
p1457
(F33.450000000000003
F88.579999999999998
tp1458
sS'Junction,TX'
p1459
(F30.5
F99.769999999999996
tp1460
sS'Oceana NAS,VA'
p1461
(F36.82
F76.030000000000001
tp1462
sS'Manitowac,WI'
p1463
(F44.130000000000003
F87.670000000000002
tp1464
sS'Quantico Mca,VA'
p1465
(F38.5
F77.299999999999997
tp1466
sS'Norfolk NAS,VA'
p1467
(F36.93
F76.280000000000001
tp1468
sS'San Angelo,TX'
p1469
(F31.370000000000001
F100.5
tp1470
sS'Drummond,MT'
p1471
(F46.670000000000002
F113.15000000000001
tp1472
sS'Columbia,MO'
p1473
(F38.82
F92.219999999999999
tp1474
sS'Sandburg,CA'
p1475
(F34.75
F118.73
tp1476
sS'Funter Bay,AK'
p1477
(F58.25
F134.90000000000001
tp1478
sS'Cape Cod Can,MA'
p1479
(F41.780000000000001
F70.5
tp1480
sS'Windsor Loc,CT'
p1481
(F41.93
F72.680000000000007
tp1482
sS'Moriarity,NM'
p1483
(F34.979999999999997
F106.05
tp1484
sS'Mccall,ID'
p1485
(F44.880000000000003
F116.09999999999999
tp1486
sS'Loring AFB,ME'
p1487
(F46.950000000000003
F67.879999999999995
tp1488
sS'Lemmon,SD'
p1489
(F45.93
F102.17
tp1490
sS'Philip,SD'
p1491
(F44.049999999999997
F101.59999999999999
tp1492
sS'Carlsbad,NM'
p1493
(F32.329999999999998
F104.27
tp1494
sS'W Lafayette,IN'
p1495
(F40.420000000000002
F86.930000000000007
tp1496
sS'White Sands,NM'
p1497
(F32.630000000000003
F106.40000000000001
tp1498
sS'Corpus Chrst,TX'
p1499
(F27.699999999999999
F97.280000000000001
tp1500
sS'Toledo,WA'
p1501
(F46.479999999999997
F122.8
tp1502
sS'Skwentna,AK'
p1503
(F61.969999999999999
F151.19999999999999
tp1504
sS'Traverse City,MI'
p1505
(F44.729999999999997
F85.579999999999998
tp1506
sS'Wendover,UT'
p1507
(F41.219999999999999
F114.05
tp1508
sS'Jackson,TN'
p1509
(F35.600000000000001
F88.920000000000002
tp1510
sS'Warroad,MN'
p1511
(F48.93
F95.349999999999994
tp1512
sS'Fort Sill,OK'
p1513
(F34.649999999999999
F98.400000000000006
tp1514
sS'Williston,ND'
p1515
(F48.18
F103.63
tp1516
sS'Salt Lake City,UT'
p1517
(F40.780000000000001
F111.97
tp1518
sS'Fraser,CO'
p1519
(F39.57
F105.5
tp1520
sS'Burwell,NE'
p1521
(F41.780000000000001
F99.150000000000006
tp1522
sS'Norman,OK'
p1523
(F35.229999999999997
F97.469999999999999
tp1524
sS'Cuba Awrs,NM'
p1525
(F36.020000000000003
F106.95
tp1526
sS'Newport,OR'
p1527
(F44.630000000000003
F124.05
tp1528
sS'Saint Peters,FL'
p1529
(F27.920000000000002
F82.680000000000007
tp1530
sS'Brunswick,GA'
p1531
(F31.149999999999999
F81.379999999999995
tp1532
sS'Kingsville,TX'
p1533
(F27.5
F97.819999999999993
tp1534
sS'Fort Myers,FL'
p1535
(F26.579999999999998
F81.870000000000005
tp1536
sS'Blue Canyon,CA'
p1537
(F39.280000000000001
F120.7
tp1538
sS'Hot Springs,VA'
p1539
(F37.950000000000003
F79.819999999999993
tp1540
sS'Shaw AFB,SC'
p1541
(F33.969999999999999
F80.469999999999999
tp1542
sS'Cody,WY'
p1543
(F44.520000000000003
F109.02
tp1544
sS'Five Mile,AK'
p1545
(F65.930000000000007
F149.83000000000001
tp1546
sS'Minot AFB,ND'
p1547
(F48.420000000000002
F101.34999999999999
tp1548
sS'St. Louis,MO'
p1549
(F38.75
F90.370000000000005
tp1550
sS'Oshkosh,WI'
p1551
(F44.0
F88.569999999999993
tp1552
sS'Coopersville,MI'
p1553
(F43.07
F85.950000000000003
tp1554
sS'Marthas Vine,MA'
p1555
(F41.399999999999999
F70.620000000000005
tp1556
sS'Albany,NY'
p1557
(F42.75
F73.799999999999997
tp1558
sS'Newport,VT'
p1559
(F45.549999999999997
F72.329999999999998
tp1560
sS'Pensacola,FL'
p1561
(F30.469999999999999
F87.200000000000003
tp1562
sS'Mccomb,MS'
p1563
(F31.18
F90.469999999999999
tp1564
sS'Cozad,NE'
p1565
(F40.869999999999997
F100.0
tp1566
sS'Quonset Pt NAS,RI'
p1567
(F41.359999999999999
F71.25
tp1568
sS'Winston-Salem,NC'
p1569
(F36.130000000000003
F80.230000000000004
tp1570
sS'Gage,OK'
p1571
(F36.299999999999997
F99.769999999999996
tp1572
sS'Steamboat Sp,CO'
p1573
(F40.479999999999997
F106.81999999999999
tp1574
sS'Paducah,KY'
p1575
(F37.07
F88.769999999999996
tp1576
sS'Grissom AFB,IN'
p1577
(F40.649999999999999
F86.150000000000006
tp1578
sS'Casper,WY'
p1579
(F42.920000000000002
F106.47
tp1580
sS'Cordova,AK'
p1581
(F60.5
F145.5
tp1582
sS'Willow,AK'
p1583
(F61.75
F150.05000000000001
tp1584
sS'Dubois,PA'
p1585
(F41.18
F78.900000000000006
tp1586
sS'Rumford,ME'
p1587
(F44.880000000000003
F70.879999999999995
tp1588
sS'Missippi Can,LA'
p1589
(F28.780000000000001
F89.049999999999997
tp1590
sS'Galbraith Lk,AK'
p1591
(F68.480000000000004
F149.47999999999999
tp1592
sS'Vero Beach,FL'
p1593
(F27.649999999999999
F80.420000000000002
tp1594
sS'Brainerd-Crw,MN'
p1595
(F46.399999999999999
F94.129999999999995
tp1596
sS'Seattle,WA'
p1597
(F47.450000000000003
F122.3
tp1598
sS'Russell,KS'
p1599
(F38.869999999999997
F98.819999999999993
tp1600
sS'Malad City,ID'
p1601
(F42.170000000000002
F112.31999999999999
tp1602
sS'Mullan,ID'
p1603
(F47.469999999999999
F115.8
tp1604
sS'Titusville,FL'
p1605
(F28.52
F80.799999999999997
tp1606
sS'Burlington,IA'
p1607
(F40.780000000000001
F91.120000000000005
tp1608
sS'Tupelo,MS'
p1609
(F34.270000000000003
F88.769999999999996
tp1610
sS'Arcata,CA'
p1611
(F40.979999999999997
F124.09999999999999
tp1612
sS'Memphis NAS,TN'
p1613
(F35.350000000000001
F89.870000000000005
tp1614
sS'Tuscaloosa,AL'
p1615
(F33.229999999999997
F87.620000000000005
tp1616
sS'Bloomington,IN'
p1617
(F39.130000000000003
F86.620000000000005
tp1618
sS'Aurora,IL'
p1619
(F41.770000000000003
F88.319999999999993
tp1620
sS'Bloomington,IL'
p1621
(F40.479999999999997
F88.930000000000007
tp1622
sS'Hill City,KS'
p1623
(F39.380000000000003
F99.829999999999998
tp1624
sS'Beaufort Mca,SC'
p1625
(F32.479999999999997
F80.719999999999999
tp1626
sS'Tacoma,WA'
p1627
(F47.270000000000003
F122.58
tp1628
sS'Redding,CA'
p1629
(F40.5
F122.3
tp1630
sS'Mcalester,OK'
p1631
(F34.880000000000003
F95.780000000000001
tp1632
sS"Chicago/O'hare,IL"
p1633
(F41.979999999999997
F87.900000000000006
tp1634
sS'Andrews AFB,MD'
p1635
(F38.82
F76.870000000000005
tp1636
sS'Lansing,MI'
p1637
(F42.770000000000003
F84.599999999999994
tp1638
sS'San Luis Obi,CA'
p1639
(F35.229999999999997
F120.65000000000001
tp1640
sS'Mcentire,SC'
p1641
(F33.920000000000002
F80.799999999999997
tp1642
sS'Escanaba,MI'
p1643
(F45.729999999999997
F87.079999999999998
tp1644
sS'Astor NAS,FL'
p1645
(F29.120000000000001
F81.569999999999993
tp1646
sS'Jonesboro,AR'
p1647
(F35.829999999999998
F90.650000000000006
tp1648
sS'Macdill AFB,FL'
p1649
(F27.850000000000001
F82.519999999999996
tp1650
sS'Deming,NM'
p1651
(F32.25
F107.7
tp1652
sS'Cincinnati,OH'
p1653
(F39.100000000000001
F84.430000000000007
tp1654
sS'Centreville,AL'
p1655
(F32.899999999999999
F87.25
tp1656
sS'Lovelock,NV'
p1657
(F40.100000000000001
F118.92
tp1658
sS'Allentown,PA'
p1659
(F40.649999999999999
F75.430000000000007
tp1660
sS'Lake View,OR'
p1661
(F42.18
F120.34999999999999
tp1662
sS'Cape Hinchi,AK'
p1663
(F60.380000000000003
F147.08000000000001
tp1664
sS'Angoon,AK'
p1665
(F57.829999999999998
F134.97
tp1666
sS'Castle AFB,CA'
p1667
(F37.380000000000003
F120.56999999999999
tp1668
sS'Apalachicola,FL'
p1669
(F29.73
F85.030000000000001
tp1670
sS'Riverside,CA'
p1671
(F33.950000000000003
F117.45
tp1672
sS'Evanston,WY'
p1673
(F41.329999999999998
F111.0
tp1674
sS'New Bedford,MA'
p1675
(F41.68
F70.969999999999999
tp1676
sS'Susanville,CA'
p1677
(F40.630000000000003
F120.95
tp1678
sS'Walla Walla,WA'
p1679
(F46.100000000000001
F118.28
tp1680
sS'New Andreafs,AK'
p1681
(F62.07
F163.30000000000001
tp1682
sS'Louisville,KY'
p1683
(F38.18
F85.730000000000004
tp1684
sS'Centralia,IL'
p1685
(F38.509999999999998
F89.090000000000003
tp1686
sS'Van Nuys,CA'
p1687
(F34.219999999999999
F118.48
tp1688
sS'Sitka,AK'
p1689
(F57.07
F135.34999999999999
tp1690
sS'Charleston,WV'
p1691
(F38.369999999999997
F81.599999999999994
tp1692
sS'Topeka,KS'
p1693
(F39.07
F95.620000000000005
tp1694
sS'Block Island,RI'
p1695
(F41.170000000000002
F71.579999999999998
tp1696
sS'Battle Mtn,NV'
p1697
(F40.619999999999997
F116.87
tp1698
sS'Monett,MO'
p1699
(F37.329999999999998
F94.349999999999994
tp1700
sS'Hilo,HI'
p1701
(F19.719999999999999
F155.06999999999999
tp1702
sS'Kalamazoo,MI'
p1703
(F42.229999999999997
F85.549999999999997
tp1704
sS'Willoughby,OH'
p1705
(F41.630000000000003
F81.400000000000006
tp1706
sS'Cedar City,UT'
p1707
(F37.700000000000003
F113.09999999999999
tp1708
sS'Morristown,NJ'
p1709
(F40.799999999999997
F74.420000000000002
tp1710
sS'St. Paul Is,AK'
p1711
(F57.149999999999999
F170.22
tp1712
sS'Trenton,NJ'
p1713
(F40.280000000000001
F74.819999999999993
tp1714
sS'Pease AFB,NH'
p1715
(F43.079999999999998
F70.819999999999993
tp1716
sS'Falcon Fld,AZ'
p1717
(F33.469999999999999
F111.73
tp1718
sS'Santa Monica,CA'
p1719
(F34.020000000000003
F118.45
tp1720
sS'Petersburg,AK'
p1721
(F56.82
F132.97
tp1722
sS'Miami,FL'
p1723
(F25.82
F80.280000000000001
tp1724
sS'Griffiss AFB,NY'
p1725
(F43.229999999999997
F75.400000000000006
tp1726
sS'Billings,MT'
p1727
(F45.799999999999997
F108.53
tp1728
sS'Twin Falls,ID'
p1729
(F42.479999999999997
F114.48
tp1730
sS'Medford,OR'
p1731
(F42.369999999999997
F122.87
tp1732
sS'Claiborne R,LA'
p1733
(F31.219999999999999
F92.950000000000003
tp1734
sS'Richards-Geb,MO'
p1735
(F38.850000000000001
F94.549999999999997
tp1736
sS'Barking San,HI'
p1737
(F22.050000000000001
F160.30000000000001
tp1738
sS'Show Low,AZ'
p1739
(F34.270000000000003
F110.0
tp1740
sS'Estherville,IA'
p1741
(F43.399999999999999
F94.75
tp1742
sS'Shelton,WA'
p1743
(F47.25
F123.15000000000001
tp1744
sS'Wurtsmith,MI'
p1745
(F44.450000000000003
F83.400000000000006
tp1746
sS'Harbor Beach,MI'
p1747
(F43.829999999999998
F82.530000000000001
tp1748
sS'Benton Harbor,MI'
p1749
(F42.130000000000003
F86.430000000000007
tp1750
sS'Chicago/Midway,IL'
p1751
(F41.780000000000001
F87.75
tp1752
sS'Skagway,AK'
p1753
(F59.75
F135.53
tp1754
sS'Gooding,ID'
p1755
(F43.0
F115.17
tp1756
sS'Superior Val,CA'
p1757
(F35.329999999999998
F117.09999999999999
tp1758
sS'Albany,GA'
p1759
(F31.530000000000001
F84.180000000000007
tp1760
sS'Worthington,MN'
p1761
(F43.649999999999999
F95.579999999999998
tp1762
sS'Great Falls,MT'
p1763
(F47.479999999999997
F111.37
tp1764
sS'Bismarck,ND'
p1765
(F46.770000000000003
F100.75
tp1766
sS'Panama City,FL'
p1767
(F30.199999999999999
F85.680000000000007
tp1768
sS'Southern Pin,NC'
p1769
(F35.240000000000002
F79.390000000000001
tp1770
sS'Camden,AR'
p1771
(F33.520000000000003
F92.400000000000006
tp1772
sS'St. Joseph,MO'
p1773
(F40.280000000000001
F95.530000000000001
tp1774
sS'Pt Arena,CA'
p1775
(F39.579999999999998
F124.22
tp1776
sS'Ft Col/Lovel,CO'
p1777
(F40.450000000000003
F105.02
tp1778
sS'Dubuque,IA'
p1779
(F42.399999999999999
F90.700000000000003
tp1780
sS'Champaign/Urbana,IL'
p1781
(F40.030000000000001
F88.280000000000001
tp1782
sS'Newport News,VA'
p1783
(F37.130000000000003
F76.5
tp1784
sS'Blythe,CA'
p1785
(F33.619999999999997
F114.72
tp1786
sS'Dallas/Love,TX'
p1787
(F32.850000000000001
F96.849999999999994
tp1788
sS'Carbondale,IL'
p1789
(F37.780000000000001
F89.25
tp1790
sS'Natchez,MS'
p1791
(F31.620000000000001
F91.25
tp1792
sS'Staunton,VA'
p1793
(F38.270000000000003
F78.849999999999994
tp1794
sS'Williamsport,PA'
p1795
(F41.25
F76.920000000000002
tp1796
sS'Du Page,IL'
p1797
(F41.920000000000002
F88.25
tp1798
sS'The Dalles,OR'
p1799
(F45.619999999999997
F121.15000000000001
tp1800
sS'Jacksonville,NC'
p1801
(F34.82
F77.620000000000005
tp1802
sS'Dare Co Gr,NC'
p1803
(F36.130000000000003
F76.5
tp1804
sS'Stillwater,OK'
p1805
(F36.159999999999997
F97.090000000000003
tp1806
sS'Grand Rapids,MN'
p1807
(F47.219999999999999
F93.519999999999996
tp1808
sS'Grand Rapids,MI'
p1809
(F42.880000000000003
F85.519999999999996
tp1810
sS'Palacios,TX'
p1811
(F28.719999999999999
F96.25
tp1812
sS'Bistate Park,IL'
p1813
(F38.57
F90.150000000000006
tp1814
sS'Barnegat Ls,NJ'
p1815
(F40.280000000000001
F74.280000000000001
tp1816
sS'Fort Huachuc,AZ'
p1817
(F31.600000000000001
F110.34999999999999
tp1818
sS'Tofte,MN'
p1819
(F47.579999999999998
F90.829999999999998
tp1820
sS'Gainesville,FL'
p1821
(F29.68
F82.269999999999996
tp1822
sS'Rockland,ME'
p1823
(F44.07
F69.120000000000005
tp1824
sS'Wildhorse,NV'
p1825
(F41.329999999999998
F116.25
tp1826
sS'Savannah Mun,GA'
p1827
(F32.130000000000003
F81.200000000000003
tp1828
sS'Point Lay,AK'
p1829
(F69.819999999999993
F162.91999999999999
tp1830
sS'Omak,WA'
p1831
(F48.420000000000002
F119.53
tp1832
sS'Lancaster,PA'
p1833
(F40.130000000000003
F76.299999999999997
tp1834
sS'Malmstrom,MT'
p1835
(F47.5
F111.18000000000001
tp1836
sS'Danbury,CT'
p1837
(F41.369999999999997
F73.480000000000004
tp1838
sS'Mcconnell Af,KS'
p1839
(F37.619999999999997
F97.269999999999996
tp1840
sS'Fort Devens,MA'
p1841
(F42.57
F71.599999999999994
tp1842
sS'Dyess AFB,TX'
p1843
(F32.43
F99.849999999999994
tp1844
sS'Rochester,NY'
p1845
(F43.119999999999997
F77.670000000000002
tp1846
sS'Las Vegas,NM'
p1847
(F35.649999999999999
F105.15000000000001
tp1848
sS'Dallas/Redbr,TX'
p1849
(F32.68
F96.870000000000005
tp1850
sS'Northrup Str,NM'
p1851
(F32.899999999999999
F106.40000000000001
tp1852
sS'Nth Kingston,RI'
p1853
(F41.600000000000001
F71.420000000000002
tp1854
sS'Site R,PA'
p1855
(F39.729999999999997
F77.430000000000007
tp1856
sS'Reading,PA'
p1857
(F40.380000000000003
F75.969999999999999
tp1858
sS'Renton,WA'
p1859
(F47.5
F122.22
tp1860
sS'Montague,CA'
p1861
(F41.729999999999997
F122.53
tp1862
sS'Dugway Prvgr,UT'
p1863
(F40.200000000000003
F112.93000000000001
tp1864
sS'Travis AFB,CA'
p1865
(F38.270000000000003
F121.93000000000001
tp1866
sS'Lincoln Muni,NE'
p1867
(F40.850000000000001
F96.75
tp1868
sS'Nikolski,AK'
p1869
(F53.579999999999998
F169.41999999999999
tp1870
sS'Minneapolis,MN'
p1871
(F44.880000000000003
F93.219999999999999
tp1872
sS'Fort Polk,LA'
p1873
(F31.050000000000001
F93.200000000000003
tp1874
sS'Dutch Harbor,AK'
p1875
(F53.880000000000003
F166.53
tp1876
sS'Buffalo,NY'
p1877
(F42.93
F78.730000000000004
tp1878
sS'Moody AFB,GA'
p1879
(F30.969999999999999
F83.200000000000003
tp1880
sS'Price/Carbon,UT'
p1881
(F39.619999999999997
F110.75
tp1882
sS'Pine Bluff,AR'
p1883
(F34.170000000000002
F91.930000000000007
tp1884
sS'Bellingham,WA'
p1885
(F48.799999999999997
F122.53
tp1886
sS'Challis,ID'
p1887
(F44.520000000000003
F114.22
tp1888
sS'Langley AFB,VA'
p1889
(F37.079999999999998
F76.370000000000005
tp1890
sS'Boston,MA'
p1891
(F42.369999999999997
F71.030000000000001
tp1892
sS'Willow Grove,PA'
p1893
(F40.200000000000003
F75.150000000000006
tp1894
sS'Plainview,TX'
p1895
(F34.170000000000002
F101.70999999999999
tp1896
sS'Rock Springs,WY'
p1897
(F41.600000000000001
F109.06999999999999
tp1898
sS'Columbia,SC'
p1899
(F33.950000000000003
F81.120000000000005
tp1900
sS'Pullman,WA'
p1901
(F46.75
F117.12
tp1902
sS'Las Cruces,NM'
p1903
(F32.299999999999997
F106.77
tp1904
sS'Guadalupe Ps,TX'
p1905
(F31.829999999999998
F104.8
tp1906
sS'Troutdale,OR'
p1907
(F45.549999999999997
F122.40000000000001
tp1908
sS"O'neill,NE"
p1909
(F42.469999999999999
F98.680000000000007
tp1910
sS'Alamosa,CO'
p1911
(F37.450000000000003
F105.87
tp1912
sS'Mineral Wlls,TX'
p1913
(F32.780000000000001
F98.069999999999993
tp1914
sS'Naples,FL'
p1915
(F26.129999999999999
F81.799999999999997
tp1916
sS'El Monte,CA'
p1917
(F34.079999999999998
F118.03
tp1918
sS'Ponca City,OK'
p1919
(F36.729999999999997
F97.099999999999994
tp1920
sS'Denver,CO'
p1921
(F39.75
F104.87
tp1922
sS'Mobridge,SD'
p1923
(F45.530000000000001
F100.43000000000001
tp1924
sS'Yuma,AZ'
p1925
(F33.100000000000001
F115.0
tp1926
sS'Moorcroft,WY'
p1927
(F44.350000000000001
F104.81
tp1928
sS'Marseilles,IL'
p1929
(F41.369999999999997
F88.680000000000007
tp1930
sS'Lonely (dew),AK'
p1931
(F70.920000000000002
F153.22999999999999
tp1932
sS'Ambrose,NY'
p1933
(F40.75
F74.370000000000005
tp1934
sS'Gustavus,AK'
p1935
(F58.420000000000002
F135.72999999999999
tp1936
sS'Kinston,NC'
p1937
(F35.32
F77.629999999999995
tp1938
sS'Joplin,MO'
p1939
(F37.170000000000002
F94.5
tp1940
sS'Lone Rock,WI'
p1941
(F43.200000000000003
F90.180000000000007
tp1942
sS'Wainwright,AK'
p1943
(F70.620000000000005
F159.84999999999999
tp1944
sS'San Antonio,TX'
p1945
(F29.329999999999998
F98.469999999999999
tp1946
sS'Berlin,NH'
p1947
(F44.579999999999998
F71.180000000000007
tp1948
sS'Marfa,TX'
p1949
(F30.370000000000001
F104.02
tp1950
sS'Bishop,CA'
p1951
(F37.600000000000001
F118.59999999999999
tp1952
sS'Zanesville,OH'
p1953
(F39.950000000000003
F81.900000000000006
tp1954
sS'Egmont Key,FL'
p1955
(F27.600000000000001
F82.769999999999996
tp1956
sS'Oxford,MS'
p1957
(F34.390000000000001
F89.540000000000006
tp1958
sS'Las Vegas,NV'
p1959
(F36.079999999999998
F115.17
tp1960
sS'Janesville,WI'
p1961
(F42.619999999999997
F89.030000000000001
tp1962
sS'Bozeman,MT'
p1963
(F45.780000000000001
F111.15000000000001
tp1964
sS'Brookings,OR'
p1965
(F42.079999999999998
F124.47
tp1966
sS'Monida,MT'
p1967
(F44.57
F112.31999999999999
tp1968
sS'Hartford,CT'
p1969
(F41.729999999999997
F72.650000000000006
tp1970
sS'Whidbey Is,WA'
p1971
(F48.350000000000001
F122.65000000000001
tp1972
sS'Whittier,AK'
p1973
(F60.780000000000001
F148.72
tp1974
sS'Ely,MN'
p1975
(F47.899999999999999
F91.819999999999993
tp1976
sS'Fort Bragg,NC'
p1977
(F35.130000000000003
F78.930000000000007
tp1978
sS'Sidney,MT'
p1979
(F47.719999999999999
F104.18000000000001
tp1980
sS'New Bern,NC'
p1981
(F35.079999999999998
F77.049999999999997
tp1982
sS'Lufkin,TX'
p1983
(F31.23
F94.75
tp1984
sS'Toledo,OH'
p1985
(F41.600000000000001
F83.799999999999997
tp1986
sS'Stephenville,TX'
p1987
(F32.219999999999999
F98.180000000000007
tp1988
sS'Aspen,CO'
p1989
(F39.219999999999999
F106.87
tp1990
sS'Iron Mtn,MI'
p1991
(F45.82
F88.120000000000005
tp1992
sS'High Is,LA'
p1993
(F28.219999999999999
F93.75
tp1994
sS'Harrison,AR'
p1995
(F36.270000000000003
F93.150000000000006
tp1996
sS'Beverly,MA'
p1997
(F42.579999999999998
F70.920000000000002
tp1998
sS'North Platte,NE'
p1999
(F41.130000000000003
F100.68000000000001
tp2000
sS'Lexington,KY'
p2001
(F38.049999999999997
F85.0
tp2002
sS'Thompson Fal,MT'
p2003
(F47.600000000000001
F115.37
tp2004
sS'Moses Lake,WA'
p2005
(F47.200000000000003
F119.31999999999999
tp2006
sS'Wenatchee,WA'
p2007
(F47.399999999999999
F120.2
tp2008
sS'Alexandria,MN'
p2009
(F45.869999999999997
F95.379999999999995
tp2010
sS'Cortez,CO'
p2011
(F37.299999999999997
F108.63
tp2012
sS'Cascade,OR'
p2013
(F45.68
F121.88
tp2014
sS'Madison,WI'
p2015
(F43.130000000000003
F89.329999999999998
tp2016
sS'San Miguel,CA'
p2017
(F34.030000000000001
F120.40000000000001
tp2018
sS'Dothan,AL'
p2019
(F31.32
F85.450000000000003
tp2020
sS'Copper Harb,MI'
p2021
(F47.469999999999999
F87.849999999999994
tp2022
sS'Ft Campbell,KY'
p2023
(F36.670000000000002
F87.5
tp2024
sS'Key West NAS,FL'
p2025
(F24.57
F81.680000000000007
tp2026
sS'Vernal,UT'
p2027
(F40.450000000000003
F109.52
tp2028
sS'Brownwood,TX'
p2029
(F31.789999999999999
F98.959999999999994
tp2030
sS'El Paso,TX'
p2031
(F31.800000000000001
F106.40000000000001
tp2032
sS'Needles,CA'
p2033
(F34.770000000000003
F114.62
tp2034
sS'Daytona Bch,FL'
p2035
(F29.18
F81.049999999999997
tp2036
sS'Winnemucca,NV'
p2037
(F40.899999999999999
F117.8
tp2038
sS'La Junta,CO'
p2039
(F38.049999999999997
F103.52
tp2040
sS'Jackson,WY'
p2041
(F43.600000000000001
F110.73
tp2042
sS'Avon Park G,FL'
p2043
(F28.079999999999998
F81.549999999999997
tp2044
sS'Fayetteville,NC'
p2045
(F35.0
F78.879999999999995
tp2046
sS'Randolph AFB,TX'
p2047
(F29.530000000000001
F98.280000000000001
tp2048
sS'Cantwell,AK'
p2049
(F63.380000000000003
F148.94999999999999
tp2050
sS'Rochester,MN'
p2051
(F43.920000000000002
F92.5
tp2052
sS'Prudhoe Bay,AK'
p2053
(F70.25
F148.33000000000001
tp2054
sS'Santa Rosa,CA'
p2055
(F38.520000000000003
F122.81999999999999
tp2056
sS'Lewisburg,WV'
p2057
(F37.869999999999997
F80.400000000000006
tp2058
sS'Plattsburgh,NY'
p2059
(F44.649999999999999
F73.469999999999999
tp2060
sS'Liberal,KS'
p2061
(F37.049999999999997
F100.97
tp2062
sS'Keesler AFB,MS'
p2063
(F30.420000000000002
F88.920000000000002
tp2064
sS'Dansville,NY'
p2065
(F42.969999999999999
F78.200000000000003
tp2066
sS'Alpena,MI'
p2067
(F45.07
F83.569999999999993
tp2068
sS'Columbus,GA'
p2069
(F32.520000000000003
F84.930000000000007
tp2070
sS'Kotzebue,AK'
p2071
(F66.870000000000005
F162.63
tp2072
sS'Jamestown,NY'
p2073
(F42.149999999999999
F79.25
tp2074
sS'Saginaw,MI'
p2075
(F43.530000000000001
F84.079999999999998
tp2076
sS'Klamath Fall,OR'
p2077
(F42.149999999999999
F121.73
tp2078
sS'Duluth,MN'
p2079
(F46.829999999999998
F92.180000000000007
tp2080
sS'S Weymouth,MA'
p2081
(F42.149999999999999
F70.930000000000007
tp2082
sS'Oneonta,NY'
p2083
(F42.869999999999997
F75.120000000000005
tp2084
sS'Tinker AFB,OK'
p2085
(F35.420000000000002
F97.379999999999995
tp2086
sS'Galveston,TX'
p2087
(F29.27
F94.870000000000005
tp2088
sS'Silver City,NM'
p2089
(F32.630000000000003
F108.17
tp2090
sS'Norfolk,NE'
p2091
(F41.979999999999997
F97.430000000000007
tp2092
sS'Tallahassee,FL'
p2093
(F30.379999999999999
F84.370000000000005
tp2094
sS'Lake Tahoe,CA'
p2095
(F38.899999999999999
F120.0
tp2096
sS'Chanute,KS'
p2097
(F37.670000000000002
F95.480000000000004
tp2098
sS'Olathe,KS'
p2099
(F38.850000000000001
F94.900000000000006
tp2100
sS'Fullerton,CA'
p2101
(F33.869999999999997
F117.97
tp2102
sS'Anniston,AL'
p2103
(F33.579999999999998
F85.849999999999994
tp2104
sS'Quincy,IL'
p2105
(F39.93
F91.200000000000003
tp2106
sS'Fort Rucker,AL'
p2107
(F31.280000000000001
F85.719999999999999
tp2108
sS'Quillayute,WA'
p2109
(F47.950000000000003
F124.55
tp2110
sS'Idaho Falls,ID'
p2111
(F43.520000000000003
F112.06999999999999
tp2112
sS'Laughlin AFB,TX'
p2113
(F29.370000000000001
F100.78
tp2114
sS'Hondo,TX'
p2115
(F29.350000000000001
F99.170000000000002
tp2116
sS'Big Sky,TX'
p2117
(F32.390000000000001
F101.48
tp2118
sS'Paso Robles,CA'
p2119
(F35.670000000000002
F120.63
tp2120
sS'Broomfield,CO'
p2121
(F39.899999999999999
F105.12
tp2122
sS'Aberdeen,SD'
p2123
(F45.450000000000003
F98.430000000000007
tp2124
sS'Rice Lake,WI'
p2125
(F45.479999999999997
F91.719999999999999
tp2126
sS'Green Bay,WI'
p2127
(F44.479999999999997
F88.129999999999995
tp2128
sS'Phoenix,AZ'
p2129
(F33.43
F112.02
tp2130
sS'Fort Meade,MD'
p2131
(F39.079999999999998
F76.769999999999996
tp2132
sS'Alameda,CA'
p2133
(F37.780000000000001
F122.31999999999999
tp2134
sS'Abilene,TX'
p2135
(F32.420000000000002
F99.680000000000007
tp2136
sS'Chicago,IL'
p2137
(F41.899999999999999
F87.650000000000006
tp2138
sS'Delta,UT'
p2139
(F39.329999999999998
F112.58
tp2140
sS'Columbus,NE'
p2141
(F41.450000000000003
F97.349999999999994
tp2142
sS'Colville,WA'
p2143
(F48.880000000000003
F118.47
tp2144
sS'Sacramento,CA'
p2145
(F38.700000000000003
F121.59999999999999
tp2146
sS'Worcester,MA'
p2147
(F42.270000000000003
F71.870000000000005
tp2148
sS'Pt Piedras,CA'
p2149
(F36.119999999999997
F121.47
tp2150
sS'Prescott,AZ'
p2151
(F34.649999999999999
F112.43000000000001
tp2152
sS'Moline/Quad,IL'
p2153
(F41.450000000000003
F90.519999999999996
tp2154
sS'Butte,MT'
p2155
(F45.950000000000003
F112.5
tp2156
sS'Fort Ord,CA'
p2157
(F36.68
F121.77
tp2158
sS'Macon/Lewis,GA'
p2159
(F32.700000000000003
F83.650000000000006
tp2160
sS'Del Rio,TX'
p2161
(F29.370000000000001
F100.92
tp2162
sS'New York/JFK,NY'
p2163
(F40.649999999999999
F73.780000000000001
tp2164
sS'Pt Alsworth,AK'
p2165
(F60.200000000000003
F154.30000000000001
tp2166
sS'Portland,OR'
p2167
(F45.600000000000001
F122.59999999999999
tp2168
sS'Fayetteville,AR'
p2169
(F36.0
F94.170000000000002
tp2170
sS'Grand Jct,CO'
p2171
(F39.119999999999997
F108.53
tp2172
sS'Harlowton,MT'
p2173
(F46.43
F109.83
tp2174
sS'Lidgerwood,ND'
p2175
(F46.100000000000001
F97.150000000000006
tp2176
sS'March AFB,CA'
p2177
(F33.880000000000003
F117.27
tp2178
sS'Pt Arguello,CA'
p2179
(F34.950000000000003
F121.12
tp2180
sS'Elkhart,KS'
p2181
(F37.0
F101.88
tp2182
sS'Fort Drum,NY'
p2183
(F44.049999999999997
F75.730000000000004
tp2184
sS'Atlanta,GA'
p2185
(F33.649999999999999
F84.420000000000002
tp2186
sS'Hunter Aaf,GA'
p2187
(F32.020000000000003
F81.150000000000006
tp2188
sS'Wright-Pat AFB,OH'
p2189
(F39.829999999999998
F84.049999999999997
tp2190
sS'Cape Canaveral,FL'
p2191
(F28.469999999999999
F80.549999999999997
tp2192
sS'Ind Sprng Rn,NV'
p2193
(F36.57
F115.67
tp2194
sS'Gila Bend,AZ'
p2195
(F33.549999999999997
F113.17
tp2196
sS'Childress,TX'
p2197
(F34.43
F100.28
tp2198
sS'Bar Harbor,ME'
p2199
(F44.450000000000003
F68.370000000000005
tp2200
sS'Five Finger,AK'
p2201
(F57.450000000000003
F134.03
tp2202
sS'Owyhee,NV'
p2203
(F42.579999999999998
F116.17
tp2204
sS'Unalakleet,AK'
p2205
(F63.880000000000003
F160.80000000000001
tp2206
sS'Helena,MT'
p2207
(F46.600000000000001
F112.0
tp2208
sS'Fairchild,WA'
p2209
(F47.619999999999997
F117.65000000000001
tp2210
sS'Lamoni,IA'
p2211
(F40.619999999999997
F93.930000000000007
tp2212
sS'Dodge City,KS'
p2213
(F37.770000000000003
F99.969999999999999
tp2214
sS'Miami/Tamiami,FL'
p2215
(F25.649999999999999
F80.430000000000007
tp2216
sS'Ft Stewart,GA'
p2217
(F31.879999999999999
F81.569999999999993
tp2218
sS'Rawlins,WY'
p2219
(F41.799999999999997
F107.2
tp2220
sS'Glens Falls,NY'
p2221
(F43.350000000000001
F73.620000000000005
tp2222
sS'Truth Or Con,NM'
p2223
(F33.229999999999997
F107.27
tp2224
sS'Barbers Pt,HI'
p2225
(F21.530000000000001
F158.12
tp2226
sS'Manley Ht Sp,AK'
p2227
(F65.0
F150.65000000000001
tp2228
sS'Mcguire AFB,NJ'
p2229
(F40.020000000000003
F74.599999999999994
tp2230
sS'Eugene,OR'
p2231
(F44.119999999999997
F123.22
tp2232
sS'Waycross,GA'
p2233
(F31.25
F82.400000000000006
tp2234
sS'Imperial Bch,CA'
p2235
(F32.57
F117.12
tp2236
sS'Waterloo Mun,IA'
p2237
(F42.549999999999997
F92.400000000000006
tp2238
sS'Rome/Russell,GA'
p2239
(F34.350000000000001
F85.170000000000002
tp2240
sS'Englewood,CO'
p2241
(F39.57
F104.83
tp2242
sS'Nth Myrtle B,SC'
p2243
(F33.82
F78.719999999999999
tp2244
sS'Shreveport,LA'
p2245
(F32.469999999999999
F93.819999999999993
tp2246
sS'Grants,NM'
p2247
(F35.170000000000002
F107.90000000000001
tp2248
sS'Mullen,NE'
p2249
(F42.049999999999997
F101.05
tp2250
sS'Seattle/Boeing,WA'
p2251
(F47.530000000000001
F122.3
tp2252
sS'Sault Ste M,MI'
p2253
(F46.469999999999999
F84.370000000000005
tp2254
sS'High Island,LA'
p2255
(F28.129999999999999
F94.400000000000006
tp2256
sS'Flint/Bishop,MI'
p2257
(F42.969999999999999
F83.75
tp2258
sS'Puntilla,AK'
p2259
(F62.170000000000002
F153.25
tp2260
sS'Chandalar Lk,AK'
p2261
(F67.5
F148.47999999999999
tp2262
sS'Johnstown,PA'
p2263
(F40.32
F78.829999999999998
tp2264
sS'Pasco,WA'
p2265
(F46.270000000000003
F119.12
tp2266
sS'San Nic Isl,CA'
p2267
(F33.25
F119.45
tp2268
sS'Roswell,NM'
p2269
(F33.299999999999997
F104.53
tp2270
sS'Broadus,MT'
p2271
(F45.670000000000002
F105.67
tp2272
sS'Bowling Gren,KY'
p2273
(F36.969999999999999
F86.430000000000007
tp2274
sS'Texarkana,AR'
p2275
(F33.450000000000003
F94.0
tp2276
sS'Key West,FL'
p2277
(F24.550000000000001
F81.75
tp2278
sS'Dillon,MT'
p2279
(F45.25
F112.55
tp2280
sS'Farmington,NM'
p2281
(F36.75
F108.23
tp2282
sS'Gulfport,MS'
p2283
(F30.399999999999999
F89.069999999999993
tp2284
sS'Craig,AK'
p2285
(F55.799999999999997
F133.25
tp2286
sS'La Grange,GA'
p2287
(F33.009999999999998
F85.069999999999993
tp2288
sS'Bridgeport,CT'
p2289
(F41.170000000000002
F73.129999999999995
tp2290
sS'Washington/Dulles,DC'
p2291
(F38.950000000000003
F77.459999999999994
tp2292
sS'Socorro,NM'
p2293
(F34.07
F106.90000000000001
tp2294
sS'Brookings,SD'
p2295
(F44.299999999999997
F96.799999999999997
tp2296
sS'Imperial,CA'
p2297
(F32.829999999999998
F115.56999999999999
tp2298
sS'Mcchord AFB,WA'
p2299
(F47.149999999999999
F122.48
tp2300
sS'Douglas,WY'
p2301
(F42.75
F105.38
tp2302
sS'Beckley,WV'
p2303
(F37.780000000000001
F81.120000000000005
tp2304
sS'La Verne,CA'
p2305
(F34.100000000000001
F117.78
tp2306
sS'Houma,LA'
p2307
(F29.57
F90.650000000000006
tp2308
sS'Marshall,MN'
p2309
(F44.450000000000003
F95.819999999999993
tp2310
sS'Raton,NM'
p2311
(F36.740000000000002
F104.5
tp2312
sS'Campo,CA'
p2313
(F32.619999999999997
F116.47
tp2314
sS'Big Piney,WY'
p2315
(F42.57
F110.09999999999999
tp2316
s.